
AVR64DD32-MAIN-Controller.elf:     file format elf32-avr

Sections:
Idx Name          Size      VMA       LMA       File off  Algn
  0 .data         000005a2  00806000  00002c80  00002d14  2**0
                  CONTENTS, ALLOC, LOAD, DATA
  1 .text         00002c80  00000000  00000000  00000094  2**1
                  CONTENTS, ALLOC, LOAD, READONLY, CODE
  2 .bss          00000070  008065a2  008065a2  000032b6  2**0
                  ALLOC
  3 .comment      0000005c  00000000  00000000  000032b6  2**0
                  CONTENTS, READONLY
  4 .note.gnu.avr.deviceinfo 0000003c  00000000  00000000  00003314  2**2
                  CONTENTS, READONLY
  5 .debug_aranges 00000468  00000000  00000000  00003350  2**3
                  CONTENTS, READONLY, DEBUGGING
  6 .debug_info   00009300  00000000  00000000  000037b8  2**0
                  CONTENTS, READONLY, DEBUGGING
  7 .debug_abbrev 00003ca2  00000000  00000000  0000cab8  2**0
                  CONTENTS, READONLY, DEBUGGING
  8 .debug_line   00002fbb  00000000  00000000  0001075a  2**0
                  CONTENTS, READONLY, DEBUGGING
  9 .debug_frame  00000c80  00000000  00000000  00013718  2**2
                  CONTENTS, READONLY, DEBUGGING
 10 .debug_str    000032ad  00000000  00000000  00014398  2**0
                  CONTENTS, READONLY, DEBUGGING
 11 .debug_loc    00003244  00000000  00000000  00017645  2**0
                  CONTENTS, READONLY, DEBUGGING
 12 .debug_ranges 000003e8  00000000  00000000  0001a889  2**0
                  CONTENTS, READONLY, DEBUGGING

Disassembly of section .text:

00000000 <__vectors>:
       0:	0c 94 48 00 	jmp	0x90	; 0x90 <__ctors_end>
       4:	0c 94 65 00 	jmp	0xca	; 0xca <__bad_interrupt>
       8:	0c 94 65 00 	jmp	0xca	; 0xca <__bad_interrupt>
       c:	0c 94 65 00 	jmp	0xca	; 0xca <__bad_interrupt>
      10:	0c 94 65 00 	jmp	0xca	; 0xca <__bad_interrupt>
      14:	0c 94 65 00 	jmp	0xca	; 0xca <__bad_interrupt>
      18:	0c 94 65 00 	jmp	0xca	; 0xca <__bad_interrupt>
      1c:	0c 94 65 00 	jmp	0xca	; 0xca <__bad_interrupt>
      20:	0c 94 65 00 	jmp	0xca	; 0xca <__bad_interrupt>
      24:	0c 94 65 00 	jmp	0xca	; 0xca <__bad_interrupt>
      28:	0c 94 65 00 	jmp	0xca	; 0xca <__bad_interrupt>
      2c:	0c 94 65 00 	jmp	0xca	; 0xca <__bad_interrupt>
      30:	0c 94 65 00 	jmp	0xca	; 0xca <__bad_interrupt>
      34:	0c 94 65 00 	jmp	0xca	; 0xca <__bad_interrupt>
      38:	0c 94 65 00 	jmp	0xca	; 0xca <__bad_interrupt>
      3c:	0c 94 65 00 	jmp	0xca	; 0xca <__bad_interrupt>
      40:	0c 94 65 00 	jmp	0xca	; 0xca <__bad_interrupt>
      44:	0c 94 65 00 	jmp	0xca	; 0xca <__bad_interrupt>
      48:	0c 94 65 00 	jmp	0xca	; 0xca <__bad_interrupt>
      4c:	0c 94 65 00 	jmp	0xca	; 0xca <__bad_interrupt>
      50:	0c 94 65 00 	jmp	0xca	; 0xca <__bad_interrupt>
      54:	0c 94 65 00 	jmp	0xca	; 0xca <__bad_interrupt>
      58:	0c 94 65 00 	jmp	0xca	; 0xca <__bad_interrupt>
      5c:	0c 94 65 00 	jmp	0xca	; 0xca <__bad_interrupt>
      60:	0c 94 65 00 	jmp	0xca	; 0xca <__bad_interrupt>
      64:	0c 94 65 00 	jmp	0xca	; 0xca <__bad_interrupt>
      68:	0c 94 65 00 	jmp	0xca	; 0xca <__bad_interrupt>
      6c:	0c 94 65 00 	jmp	0xca	; 0xca <__bad_interrupt>
      70:	0c 94 65 00 	jmp	0xca	; 0xca <__bad_interrupt>
      74:	0c 94 65 00 	jmp	0xca	; 0xca <__bad_interrupt>
      78:	0c 94 65 00 	jmp	0xca	; 0xca <__bad_interrupt>
      7c:	0c 94 65 00 	jmp	0xca	; 0xca <__bad_interrupt>
      80:	0c 94 65 00 	jmp	0xca	; 0xca <__bad_interrupt>
      84:	0c 94 65 00 	jmp	0xca	; 0xca <__bad_interrupt>
      88:	0c 94 65 00 	jmp	0xca	; 0xca <__bad_interrupt>
      8c:	0c 94 65 00 	jmp	0xca	; 0xca <__bad_interrupt>

00000090 <__ctors_end>:
      90:	11 24       	eor	r1, r1
      92:	1f be       	out	0x3f, r1	; 63
      94:	cf ef       	ldi	r28, 0xFF	; 255
      96:	cd bf       	out	0x3d, r28	; 61
      98:	df e7       	ldi	r29, 0x7F	; 127
      9a:	de bf       	out	0x3e, r29	; 62

0000009c <__do_copy_data>:
      9c:	15 e6       	ldi	r17, 0x65	; 101
      9e:	a0 e0       	ldi	r26, 0x00	; 0
      a0:	b0 e6       	ldi	r27, 0x60	; 96
      a2:	e0 e8       	ldi	r30, 0x80	; 128
      a4:	fc e2       	ldi	r31, 0x2C	; 44
      a6:	02 c0       	rjmp	.+4      	; 0xac <__do_copy_data+0x10>
      a8:	05 90       	lpm	r0, Z+
      aa:	0d 92       	st	X+, r0
      ac:	a2 3a       	cpi	r26, 0xA2	; 162
      ae:	b1 07       	cpc	r27, r17
      b0:	d9 f7       	brne	.-10     	; 0xa8 <__do_copy_data+0xc>

000000b2 <__do_clear_bss>:
      b2:	26 e6       	ldi	r18, 0x66	; 102
      b4:	a2 ea       	ldi	r26, 0xA2	; 162
      b6:	b5 e6       	ldi	r27, 0x65	; 101
      b8:	01 c0       	rjmp	.+2      	; 0xbc <.do_clear_bss_start>

000000ba <.do_clear_bss_loop>:
      ba:	1d 92       	st	X+, r1

000000bc <.do_clear_bss_start>:
      bc:	a2 31       	cpi	r26, 0x12	; 18
      be:	b2 07       	cpc	r27, r18
      c0:	e1 f7       	brne	.-8      	; 0xba <.do_clear_bss_loop>
      c2:	0e 94 30 07 	call	0xe60	; 0xe60 <main>
      c6:	0c 94 3e 16 	jmp	0x2c7c	; 0x2c7c <_exit>

000000ca <__bad_interrupt>:
      ca:	0c 94 00 00 	jmp	0	; 0x0 <__vectors>

000000ce <normalize>:
#include "ActionsVar.h"


// Pagalbinë funkcija: normalizuoja kampà á [0,360)
int16_t normalize(int16_t angle) {
	angle %= 360;
      ce:	68 e6       	ldi	r22, 0x68	; 104
      d0:	71 e0       	ldi	r23, 0x01	; 1
      d2:	0e 94 10 11 	call	0x2220	; 0x2220 <__divmodhi4>
	if (angle < 0) angle += 360;
      d6:	99 23       	and	r25, r25
      d8:	14 f4       	brge	.+4      	; 0xde <normalize+0x10>
      da:	88 59       	subi	r24, 0x98	; 152
      dc:	9e 4f       	sbci	r25, 0xFE	; 254
	return angle;
}
      de:	08 95       	ret

000000e0 <angle_diff>:

// Pagalbinë: apskaièiuoja maþiausià kampiná atstumà
int16_t angle_diff(int16_t a, int16_t b) {
	int16_t d = abs(a - b) % 360;
      e0:	9c 01       	movw	r18, r24
      e2:	26 1b       	sub	r18, r22
      e4:	37 0b       	sbc	r19, r23
      e6:	c9 01       	movw	r24, r18
      e8:	99 23       	and	r25, r25
      ea:	24 f4       	brge	.+8      	; 0xf4 <angle_diff+0x14>
      ec:	88 27       	eor	r24, r24
      ee:	99 27       	eor	r25, r25
      f0:	82 1b       	sub	r24, r18
      f2:	93 0b       	sbc	r25, r19
      f4:	68 e6       	ldi	r22, 0x68	; 104
      f6:	71 e0       	ldi	r23, 0x01	; 1
      f8:	0e 94 10 11 	call	0x2220	; 0x2220 <__divmodhi4>
	return (d > 180) ? 360 - d : d;
      fc:	85 3b       	cpi	r24, 0xB5	; 181
      fe:	91 05       	cpc	r25, r1
     100:	34 f0       	brlt	.+12     	; 0x10e <__EEPROM_REGION_LENGTH__+0xe>
     102:	28 e6       	ldi	r18, 0x68	; 104
     104:	31 e0       	ldi	r19, 0x01	; 1
     106:	a9 01       	movw	r20, r18
     108:	48 1b       	sub	r20, r24
     10a:	59 0b       	sbc	r21, r25
     10c:	ca 01       	movw	r24, r20
}
     10e:	08 95       	ret

00000110 <get_safe_azimuth>:

void get_safe_azimuth() {
     110:	cf 92       	push	r12
     112:	df 92       	push	r13
     114:	ef 92       	push	r14
     116:	ff 92       	push	r15
     118:	0f 93       	push	r16
     11a:	1f 93       	push	r17
     11c:	cf 93       	push	r28
     11e:	df 93       	push	r29
	// Galimos saugios kryptys
	int16_t safe1 = normalize((WSData.winddirection * 45) + 90);
     120:	c0 91 e5 65 	lds	r28, 0x65E5	; 0x8065e5 <WSData+0x7>
     124:	2d e2       	ldi	r18, 0x2D	; 45
     126:	c2 9f       	mul	r28, r18
     128:	e0 01       	movw	r28, r0
     12a:	11 24       	eor	r1, r1
     12c:	ce 01       	movw	r24, r28
     12e:	86 5a       	subi	r24, 0xA6	; 166
     130:	9f 4f       	sbci	r25, 0xFF	; 255
     132:	0e 94 67 00 	call	0xce	; 0xce <normalize>
     136:	8c 01       	movw	r16, r24
	int16_t safe2 = normalize((WSData.winddirection * 45) - 90);
     138:	ce 01       	movw	r24, r28
     13a:	8a 55       	subi	r24, 0x5A	; 90
     13c:	91 09       	sbc	r25, r1
     13e:	0e 94 67 00 	call	0xce	; 0xce <normalize>
     142:	ec 01       	movw	r28, r24

	bool valid1 = (safe1 >= MIN_AZIMUTH && safe1 <= MAX_AZIMUTH);
     144:	c8 01       	movw	r24, r16
     146:	4e 97       	sbiw	r24, 0x1e	; 30
	bool valid2 = (safe2 >= MIN_AZIMUTH && safe2 <= MAX_AZIMUTH);
     148:	9e 01       	movw	r18, r28
     14a:	2e 51       	subi	r18, 0x1E	; 30
     14c:	31 09       	sbc	r19, r1

	if (valid1 && valid2) {
     14e:	8d 32       	cpi	r24, 0x2D	; 45
     150:	41 e0       	ldi	r20, 0x01	; 1
     152:	94 07       	cpc	r25, r20
     154:	e8 f4       	brcc	.+58     	; 0x190 <get_safe_azimuth+0x80>
     156:	2d 32       	cpi	r18, 0x2D	; 45
     158:	31 40       	sbci	r19, 0x01	; 1
     15a:	d0 f4       	brcc	.+52     	; 0x190 <get_safe_azimuth+0x80>
		int16_t d1 = angle_diff(SensorData.Azimuth, safe1);
     15c:	e0 90 a6 65 	lds	r14, 0x65A6	; 0x8065a6 <__data_end+0x4>
     160:	f0 90 a7 65 	lds	r15, 0x65A7	; 0x8065a7 <__data_end+0x5>
     164:	b8 01       	movw	r22, r16
     166:	c7 01       	movw	r24, r14
     168:	0e 94 70 00 	call	0xe0	; 0xe0 <angle_diff>
     16c:	6c 01       	movw	r12, r24
		int16_t d2 = angle_diff(SensorData.Azimuth, safe2);
     16e:	be 01       	movw	r22, r28
     170:	c7 01       	movw	r24, r14
     172:	0e 94 70 00 	call	0xe0	; 0xe0 <angle_diff>
		Target.azimuth = (d1 <= d2) ? safe1 : safe2;
     176:	8c 15       	cp	r24, r12
     178:	9d 05       	cpc	r25, r13
     17a:	1c f0       	brlt	.+6      	; 0x182 <get_safe_azimuth+0x72>
     17c:	90 2f       	mov	r25, r16
     17e:	81 2f       	mov	r24, r17
     180:	02 c0       	rjmp	.+4      	; 0x186 <get_safe_azimuth+0x76>
     182:	9c 2f       	mov	r25, r28
     184:	8d 2f       	mov	r24, r29
     186:	90 93 4f 60 	sts	0x604F, r25	; 0x80604f <Target+0x5>
     18a:	80 93 50 60 	sts	0x6050, r24	; 0x806050 <Target+0x6>
	int16_t safe2 = normalize((WSData.winddirection * 45) - 90);

	bool valid1 = (safe1 >= MIN_AZIMUTH && safe1 <= MAX_AZIMUTH);
	bool valid2 = (safe2 >= MIN_AZIMUTH && safe2 <= MAX_AZIMUTH);

	if (valid1 && valid2) {
     18e:	0c c0       	rjmp	.+24     	; 0x1a8 <get_safe_azimuth+0x98>
		int16_t d1 = angle_diff(SensorData.Azimuth, safe1);
		int16_t d2 = angle_diff(SensorData.Azimuth, safe2);
		Target.azimuth = (d1 <= d2) ? safe1 : safe2;
		} else if (valid1) {
     190:	8d 32       	cpi	r24, 0x2D	; 45
     192:	91 40       	sbci	r25, 0x01	; 1
     194:	28 f4       	brcc	.+10     	; 0x1a0 <get_safe_azimuth+0x90>
		Target.azimuth = safe1;
     196:	00 93 4f 60 	sts	0x604F, r16	; 0x80604f <Target+0x5>
     19a:	10 93 50 60 	sts	0x6050, r17	; 0x806050 <Target+0x6>
     19e:	04 c0       	rjmp	.+8      	; 0x1a8 <get_safe_azimuth+0x98>
		} else {
		Target.azimuth = safe2; // visada bus bent vienas tinkamas
     1a0:	c0 93 4f 60 	sts	0x604F, r28	; 0x80604f <Target+0x5>
     1a4:	d0 93 50 60 	sts	0x6050, r29	; 0x806050 <Target+0x6>
	}
}
     1a8:	df 91       	pop	r29
     1aa:	cf 91       	pop	r28
     1ac:	1f 91       	pop	r17
     1ae:	0f 91       	pop	r16
     1b0:	ff 90       	pop	r15
     1b2:	ef 90       	pop	r14
     1b4:	df 90       	pop	r13
     1b6:	cf 90       	pop	r12
     1b8:	08 95       	ret

000001ba <AutoMotorControl>:

//Motor control function wrtited based on void LinearMotorControl()
void AutoMotorControl(MotorType motor)
{
     1ba:	8f 92       	push	r8
     1bc:	9f 92       	push	r9
     1be:	af 92       	push	r10
     1c0:	bf 92       	push	r11
     1c2:	cf 92       	push	r12
     1c4:	df 92       	push	r13
     1c6:	ef 92       	push	r14
     1c8:	ff 92       	push	r15
     1ca:	0f 93       	push	r16
     1cc:	1f 93       	push	r17
     1ce:	cf 93       	push	r28
     1d0:	df 93       	push	r29
	MotorControlObj* m = motor ? &StepperMotorCtrl : &LinearMotorCtrl;
     1d2:	88 23       	and	r24, r24
     1d4:	19 f0       	breq	.+6      	; 0x1dc <AutoMotorControl+0x22>
     1d6:	c0 e0       	ldi	r28, 0x00	; 0
     1d8:	d0 e6       	ldi	r29, 0x60	; 96
     1da:	02 c0       	rjmp	.+4      	; 0x1e0 <AutoMotorControl+0x26>
     1dc:	c5 e2       	ldi	r28, 0x25	; 37
     1de:	d0 e6       	ldi	r29, 0x60	; 96
	// 1. FO jungtis
	if (SensorData.FO_lost_connecton_fault) {
     1e0:	80 91 b5 65 	lds	r24, 0x65B5	; 0x8065b5 <__data_end+0x13>
     1e4:	88 23       	and	r24, r24
     1e6:	39 f0       	breq	.+14     	; 0x1f6 <AutoMotorControl+0x3c>
		m->iface.stop();
     1e8:	ef 81       	ldd	r30, Y+7	; 0x07
     1ea:	f8 85       	ldd	r31, Y+8	; 0x08
     1ec:	09 95       	icall
		m->iface.disable();
     1ee:	eb 81       	ldd	r30, Y+3	; 0x03
     1f0:	fc 81       	ldd	r31, Y+4	; 0x04
     1f2:	09 95       	icall
		return;
     1f4:	1a c1       	rjmp	.+564    	; 0x42a <__LOCK_REGION_LENGTH__+0x2a>
	}

	// 2. Tikslas pasiektas
	if (*m->sensor.position == *m->sensor.target) {
     1f6:	ef 85       	ldd	r30, Y+15	; 0x0f
     1f8:	f8 89       	ldd	r31, Y+16	; 0x10
     1fa:	20 81       	ld	r18, Z
     1fc:	31 81       	ldd	r19, Z+1	; 0x01
     1fe:	ef 89       	ldd	r30, Y+23	; 0x17
     200:	f8 8d       	ldd	r31, Y+24	; 0x18
     202:	80 81       	ld	r24, Z
     204:	91 81       	ldd	r25, Z+1	; 0x01
     206:	28 17       	cp	r18, r24
     208:	39 07       	cpc	r19, r25
     20a:	81 f4       	brne	.+32     	; 0x22c <AutoMotorControl+0x72>
		m->iface.stop();
     20c:	ef 81       	ldd	r30, Y+7	; 0x07
     20e:	f8 85       	ldd	r31, Y+8	; 0x08
     210:	09 95       	icall
		m->iface.disable();
     212:	eb 81       	ldd	r30, Y+3	; 0x03
     214:	fc 81       	ldd	r31, Y+4	; 0x04
     216:	09 95       	icall
		*m->sensor.faultFlag = false;
     218:	eb 89       	ldd	r30, Y+19	; 0x13
     21a:	fc 89       	ldd	r31, Y+20	; 0x14
     21c:	10 82       	st	Z, r1
		*m->sensor.targetReached = true;
     21e:	e9 8d       	ldd	r30, Y+25	; 0x19
     220:	fa 8d       	ldd	r31, Y+26	; 0x1a
     222:	81 e0       	ldi	r24, 0x01	; 1
     224:	80 83       	st	Z, r24
		m->stuckCount = 0;
     226:	1b 8e       	std	Y+27, r1	; 0x1b
		m->noChangeCount = 0;
     228:	1c 8e       	std	Y+28, r1	; 0x1c
		return;
     22a:	ff c0       	rjmp	.+510    	; 0x42a <__LOCK_REGION_LENGTH__+0x2a>
	}

	// 2.1  Nuskaitomi elektriniai parametrai
	*m->voltage = m->iface.read_voltage(); //read and save voltage
     22c:	09 a1       	ldd	r16, Y+33	; 0x21
     22e:	1a a1       	ldd	r17, Y+34	; 0x22
     230:	eb 85       	ldd	r30, Y+11	; 0x0b
     232:	fc 85       	ldd	r31, Y+12	; 0x0c
     234:	09 95       	icall
     236:	f8 01       	movw	r30, r16
     238:	80 83       	st	Z, r24
     23a:	91 83       	std	Z+1, r25	; 0x01
	*m->current = m->iface.read_current(); //read and save current
     23c:	0b a1       	ldd	r16, Y+35	; 0x23
     23e:	1c a1       	ldd	r17, Y+36	; 0x24
     240:	ed 85       	ldd	r30, Y+13	; 0x0d
     242:	fe 85       	ldd	r31, Y+14	; 0x0e
     244:	09 95       	icall
     246:	f8 01       	movw	r30, r16
     248:	80 83       	st	Z, r24
     24a:	91 83       	std	Z+1, r25	; 0x01

	// 3. Backlash logika
	bool inBacklash = (*m->sensor.position >= (*m->sensor.target - m->backlash)) &&
     24c:	ef 85       	ldd	r30, Y+15	; 0x0f
     24e:	f8 89       	ldd	r31, Y+16	; 0x10
     250:	80 81       	ld	r24, Z
     252:	91 81       	ldd	r25, Z+1	; 0x01
     254:	a0 e0       	ldi	r26, 0x00	; 0
     256:	b0 e0       	ldi	r27, 0x00	; 0
     258:	ef 89       	ldd	r30, Y+23	; 0x17
     25a:	f8 8d       	ldd	r31, Y+24	; 0x18
     25c:	40 81       	ld	r20, Z
     25e:	51 81       	ldd	r21, Z+1	; 0x01
     260:	60 e0       	ldi	r22, 0x00	; 0
     262:	70 e0       	ldi	r23, 0x00	; 0
     264:	0d 8d       	ldd	r16, Y+29	; 0x1d
     266:	1e 8d       	ldd	r17, Y+30	; 0x1e
     268:	2f 8d       	ldd	r18, Y+31	; 0x1f
     26a:	38 a1       	ldd	r19, Y+32	; 0x20
     26c:	6a 01       	movw	r12, r20
     26e:	7b 01       	movw	r14, r22
     270:	c0 1a       	sub	r12, r16
     272:	d1 0a       	sbc	r13, r17
     274:	e2 0a       	sbc	r14, r18
     276:	f3 0a       	sbc	r15, r19
     278:	8c 15       	cp	r24, r12
     27a:	9d 05       	cpc	r25, r13
     27c:	ae 05       	cpc	r26, r14
     27e:	bf 05       	cpc	r27, r15
     280:	5c f0       	brlt	.+22     	; 0x298 <AutoMotorControl+0xde>
	(*m->sensor.position <= (*m->sensor.target + m->backlash));
     282:	40 0f       	add	r20, r16
     284:	51 1f       	adc	r21, r17
     286:	62 1f       	adc	r22, r18
     288:	73 1f       	adc	r23, r19
	// 2.1  Nuskaitomi elektriniai parametrai
	*m->voltage = m->iface.read_voltage(); //read and save voltage
	*m->current = m->iface.read_current(); //read and save current

	// 3. Backlash logika
	bool inBacklash = (*m->sensor.position >= (*m->sensor.target - m->backlash)) &&
     28a:	48 17       	cp	r20, r24
     28c:	59 07       	cpc	r21, r25
     28e:	6a 07       	cpc	r22, r26
     290:	7b 07       	cpc	r23, r27
     292:	24 f4       	brge	.+8      	; 0x29c <AutoMotorControl+0xe2>
     294:	90 e0       	ldi	r25, 0x00	; 0
     296:	03 c0       	rjmp	.+6      	; 0x29e <AutoMotorControl+0xe4>
     298:	90 e0       	ldi	r25, 0x00	; 0
     29a:	01 c0       	rjmp	.+2      	; 0x29e <AutoMotorControl+0xe4>
     29c:	91 e0       	ldi	r25, 0x01	; 1
     29e:	89 2f       	mov	r24, r25
     2a0:	81 70       	andi	r24, 0x01	; 1
	(*m->sensor.position <= (*m->sensor.target + m->backlash));

	if (!inBacklash || !*m->sensor.targetReached) {
     2a2:	29 f0       	breq	.+10     	; 0x2ae <AutoMotorControl+0xf4>
     2a4:	e9 8d       	ldd	r30, Y+25	; 0x19
     2a6:	fa 8d       	ldd	r31, Y+26	; 0x1a
     2a8:	80 81       	ld	r24, Z
     2aa:	81 11       	cpse	r24, r1
     2ac:	09 c0       	rjmp	.+18     	; 0x2c0 <AutoMotorControl+0x106>
		m->iface.enable();
     2ae:	e9 81       	ldd	r30, Y+1	; 0x01
     2b0:	fa 81       	ldd	r31, Y+2	; 0x02
     2b2:	09 95       	icall
		m->iface.start();
     2b4:	ed 81       	ldd	r30, Y+5	; 0x05
     2b6:	fe 81       	ldd	r31, Y+6	; 0x06
     2b8:	09 95       	icall
		*m->sensor.targetReached = false;
     2ba:	e9 8d       	ldd	r30, Y+25	; 0x19
     2bc:	fa 8d       	ldd	r31, Y+26	; 0x1a
     2be:	10 82       	st	Z, r1
	}

	// 4. Pokytis
	int32_t delta = (int32_t)(*m->sensor.positionFiltered) - (int32_t)(*m->sensor.lastPosition);
     2c0:	e9 89       	ldd	r30, Y+17	; 0x11
     2c2:	fa 89       	ldd	r31, Y+18	; 0x12
     2c4:	c0 80       	ld	r12, Z
     2c6:	d1 80       	ldd	r13, Z+1	; 0x01
     2c8:	e1 2c       	mov	r14, r1
     2ca:	f1 2c       	mov	r15, r1
     2cc:	ed 89       	ldd	r30, Y+21	; 0x15
     2ce:	fe 89       	ldd	r31, Y+22	; 0x16
     2d0:	80 81       	ld	r24, Z
     2d2:	91 81       	ldd	r25, Z+1	; 0x01
     2d4:	c8 1a       	sub	r12, r24
     2d6:	d9 0a       	sbc	r13, r25
     2d8:	e1 08       	sbc	r14, r1
     2da:	f1 08       	sbc	r15, r1
	if (delta > -SENSOR_DEADBAND && delta < SENSOR_DEADBAND) {
     2dc:	d7 01       	movw	r26, r14
     2de:	c6 01       	movw	r24, r12
     2e0:	c1 96       	adiw	r24, 0x31	; 49
     2e2:	a1 1d       	adc	r26, r1
     2e4:	b1 1d       	adc	r27, r1
     2e6:	83 36       	cpi	r24, 0x63	; 99
     2e8:	91 05       	cpc	r25, r1
     2ea:	a1 05       	cpc	r26, r1
     2ec:	b1 05       	cpc	r27, r1
     2ee:	18 f4       	brcc	.+6      	; 0x2f6 <AutoMotorControl+0x13c>
		delta = 0;
     2f0:	c1 2c       	mov	r12, r1
     2f2:	d1 2c       	mov	r13, r1
     2f4:	76 01       	movw	r14, r12
	}

	// 5. Kryptis
	if (*m->sensor.position < *m->sensor.target) {
     2f6:	ef 85       	ldd	r30, Y+15	; 0x0f
     2f8:	f8 89       	ldd	r31, Y+16	; 0x10
     2fa:	20 81       	ld	r18, Z
     2fc:	31 81       	ldd	r19, Z+1	; 0x01
     2fe:	ef 89       	ldd	r30, Y+23	; 0x17
     300:	f8 8d       	ldd	r31, Y+24	; 0x18
     302:	80 81       	ld	r24, Z
     304:	91 81       	ldd	r25, Z+1	; 0x01
     306:	28 17       	cp	r18, r24
     308:	39 07       	cpc	r19, r25
     30a:	28 f4       	brcc	.+10     	; 0x316 <AutoMotorControl+0x15c>
		m->iface.set_direction(1);
     30c:	e9 85       	ldd	r30, Y+9	; 0x09
     30e:	fa 85       	ldd	r31, Y+10	; 0x0a
     310:	81 e0       	ldi	r24, 0x01	; 1
     312:	09 95       	icall
     314:	07 c0       	rjmp	.+14     	; 0x324 <AutoMotorControl+0x16a>
		} else if (*m->sensor.position > *m->sensor.target) {
     316:	82 17       	cp	r24, r18
     318:	93 07       	cpc	r25, r19
     31a:	20 f4       	brcc	.+8      	; 0x324 <AutoMotorControl+0x16a>
		m->iface.set_direction(0);
     31c:	e9 85       	ldd	r30, Y+9	; 0x09
     31e:	fa 85       	ldd	r31, Y+10	; 0x0a
     320:	80 e0       	ldi	r24, 0x00	; 0
     322:	09 95       	icall
	}

	// 6. Uþstrigimo tikrinimas (neteisinga kryptis)
	if (*m->sensor.position < (*m->sensor.target - m->backlash)) {
     324:	ef 85       	ldd	r30, Y+15	; 0x0f
     326:	f8 89       	ldd	r31, Y+16	; 0x10
     328:	80 81       	ld	r24, Z
     32a:	91 81       	ldd	r25, Z+1	; 0x01
     32c:	a0 e0       	ldi	r26, 0x00	; 0
     32e:	b0 e0       	ldi	r27, 0x00	; 0
     330:	ef 89       	ldd	r30, Y+23	; 0x17
     332:	f8 8d       	ldd	r31, Y+24	; 0x18
     334:	40 81       	ld	r20, Z
     336:	51 81       	ldd	r21, Z+1	; 0x01
     338:	60 e0       	ldi	r22, 0x00	; 0
     33a:	70 e0       	ldi	r23, 0x00	; 0
     33c:	0d 8d       	ldd	r16, Y+29	; 0x1d
     33e:	1e 8d       	ldd	r17, Y+30	; 0x1e
     340:	2f 8d       	ldd	r18, Y+31	; 0x1f
     342:	38 a1       	ldd	r19, Y+32	; 0x20
     344:	4a 01       	movw	r8, r20
     346:	5b 01       	movw	r10, r22
     348:	80 1a       	sub	r8, r16
     34a:	91 0a       	sbc	r9, r17
     34c:	a2 0a       	sbc	r10, r18
     34e:	b3 0a       	sbc	r11, r19
     350:	88 15       	cp	r24, r8
     352:	99 05       	cpc	r25, r9
     354:	aa 05       	cpc	r26, r10
     356:	bb 05       	cpc	r27, r11
     358:	fc f4       	brge	.+62     	; 0x398 <AutoMotorControl+0x1de>
		if (delta < -SENSOR_DEADBAND && ++m->stuckCount >= STUCK_LIMIT) {
     35a:	fe ec       	ldi	r31, 0xCE	; 206
     35c:	cf 16       	cp	r12, r31
     35e:	ff ef       	ldi	r31, 0xFF	; 255
     360:	df 06       	cpc	r13, r31
     362:	ef 06       	cpc	r14, r31
     364:	ff 06       	cpc	r15, r31
     366:	84 f4       	brge	.+32     	; 0x388 <AutoMotorControl+0x1ce>
     368:	8b 8d       	ldd	r24, Y+27	; 0x1b
     36a:	8f 5f       	subi	r24, 0xFF	; 255
     36c:	8b 8f       	std	Y+27, r24	; 0x1b
     36e:	84 30       	cpi	r24, 0x04	; 4
     370:	58 f0       	brcs	.+22     	; 0x388 <AutoMotorControl+0x1ce>
			*m->sensor.faultFlag = true;
     372:	eb 89       	ldd	r30, Y+19	; 0x13
     374:	fc 89       	ldd	r31, Y+20	; 0x14
     376:	81 e0       	ldi	r24, 0x01	; 1
     378:	80 83       	st	Z, r24
			m->iface.stop();
     37a:	ef 81       	ldd	r30, Y+7	; 0x07
     37c:	f8 85       	ldd	r31, Y+8	; 0x08
     37e:	09 95       	icall
			m->iface.disable();
     380:	eb 81       	ldd	r30, Y+3	; 0x03
     382:	fc 81       	ldd	r31, Y+4	; 0x04
     384:	09 95       	icall
     386:	2f c0       	rjmp	.+94     	; 0x3e6 <AutoMotorControl+0x22c>
			} else if (delta > SENSOR_DEADBAND) {
     388:	83 e3       	ldi	r24, 0x33	; 51
     38a:	c8 16       	cp	r12, r24
     38c:	d1 04       	cpc	r13, r1
     38e:	e1 04       	cpc	r14, r1
     390:	f1 04       	cpc	r15, r1
     392:	4c f1       	brlt	.+82     	; 0x3e6 <AutoMotorControl+0x22c>
			m->stuckCount = 0;
     394:	1b 8e       	std	Y+27, r1	; 0x1b
     396:	27 c0       	rjmp	.+78     	; 0x3e6 <AutoMotorControl+0x22c>
		}
		} else if (*m->sensor.position > (*m->sensor.target + m->backlash)) {
     398:	40 0f       	add	r20, r16
     39a:	51 1f       	adc	r21, r17
     39c:	62 1f       	adc	r22, r18
     39e:	73 1f       	adc	r23, r19
     3a0:	48 17       	cp	r20, r24
     3a2:	59 07       	cpc	r21, r25
     3a4:	6a 07       	cpc	r22, r26
     3a6:	7b 07       	cpc	r23, r27
     3a8:	f4 f4       	brge	.+60     	; 0x3e6 <AutoMotorControl+0x22c>
		if (delta > SENSOR_DEADBAND && ++m->stuckCount >= STUCK_LIMIT) {
     3aa:	e3 e3       	ldi	r30, 0x33	; 51
     3ac:	ce 16       	cp	r12, r30
     3ae:	d1 04       	cpc	r13, r1
     3b0:	e1 04       	cpc	r14, r1
     3b2:	f1 04       	cpc	r15, r1
     3b4:	84 f0       	brlt	.+32     	; 0x3d6 <AutoMotorControl+0x21c>
     3b6:	8b 8d       	ldd	r24, Y+27	; 0x1b
     3b8:	8f 5f       	subi	r24, 0xFF	; 255
     3ba:	8b 8f       	std	Y+27, r24	; 0x1b
     3bc:	84 30       	cpi	r24, 0x04	; 4
     3be:	58 f0       	brcs	.+22     	; 0x3d6 <AutoMotorControl+0x21c>
			*m->sensor.faultFlag = true;
     3c0:	eb 89       	ldd	r30, Y+19	; 0x13
     3c2:	fc 89       	ldd	r31, Y+20	; 0x14
     3c4:	81 e0       	ldi	r24, 0x01	; 1
     3c6:	80 83       	st	Z, r24
			m->iface.stop();
     3c8:	ef 81       	ldd	r30, Y+7	; 0x07
     3ca:	f8 85       	ldd	r31, Y+8	; 0x08
     3cc:	09 95       	icall
			m->iface.disable();
     3ce:	eb 81       	ldd	r30, Y+3	; 0x03
     3d0:	fc 81       	ldd	r31, Y+4	; 0x04
     3d2:	09 95       	icall
     3d4:	08 c0       	rjmp	.+16     	; 0x3e6 <AutoMotorControl+0x22c>
			} else if (delta < -SENSOR_DEADBAND) {
     3d6:	fe ec       	ldi	r31, 0xCE	; 206
     3d8:	cf 16       	cp	r12, r31
     3da:	ff ef       	ldi	r31, 0xFF	; 255
     3dc:	df 06       	cpc	r13, r31
     3de:	ef 06       	cpc	r14, r31
     3e0:	ff 06       	cpc	r15, r31
     3e2:	0c f4       	brge	.+2      	; 0x3e6 <AutoMotorControl+0x22c>
			m->stuckCount = 0;
     3e4:	1b 8e       	std	Y+27, r1	; 0x1b
		}
	}

	// 7. Uþstrigimas vietoje
	if (delta == 0 && !*m->sensor.targetReached) {
     3e6:	cd 28       	or	r12, r13
     3e8:	ce 28       	or	r12, r14
     3ea:	cf 28       	or	r12, r15
     3ec:	a9 f4       	brne	.+42     	; 0x418 <__LOCK_REGION_LENGTH__+0x18>
     3ee:	e9 8d       	ldd	r30, Y+25	; 0x19
     3f0:	fa 8d       	ldd	r31, Y+26	; 0x1a
     3f2:	80 81       	ld	r24, Z
     3f4:	81 11       	cpse	r24, r1
     3f6:	10 c0       	rjmp	.+32     	; 0x418 <__LOCK_REGION_LENGTH__+0x18>
		if (++m->noChangeCount >= STUCK_LIMIT) {
     3f8:	8c 8d       	ldd	r24, Y+28	; 0x1c
     3fa:	8f 5f       	subi	r24, 0xFF	; 255
     3fc:	8c 8f       	std	Y+28, r24	; 0x1c
     3fe:	84 30       	cpi	r24, 0x04	; 4
     400:	60 f0       	brcs	.+24     	; 0x41a <__LOCK_REGION_LENGTH__+0x1a>
			*m->sensor.faultFlag = true;
     402:	eb 89       	ldd	r30, Y+19	; 0x13
     404:	fc 89       	ldd	r31, Y+20	; 0x14
     406:	81 e0       	ldi	r24, 0x01	; 1
     408:	80 83       	st	Z, r24
			m->iface.stop();
     40a:	ef 81       	ldd	r30, Y+7	; 0x07
     40c:	f8 85       	ldd	r31, Y+8	; 0x08
     40e:	09 95       	icall
			m->iface.disable();
     410:	eb 81       	ldd	r30, Y+3	; 0x03
     412:	fc 81       	ldd	r31, Y+4	; 0x04
     414:	09 95       	icall
     416:	01 c0       	rjmp	.+2      	; 0x41a <__LOCK_REGION_LENGTH__+0x1a>
		}
		} else {
		m->noChangeCount = 0;
     418:	1c 8e       	std	Y+28, r1	; 0x1c
	}

	// 8. Atnaujinam paskutinæ reikðmæ
	*m->sensor.lastPosition = *m->sensor.positionFiltered;
     41a:	ed 89       	ldd	r30, Y+21	; 0x15
     41c:	fe 89       	ldd	r31, Y+22	; 0x16
     41e:	a9 89       	ldd	r26, Y+17	; 0x11
     420:	ba 89       	ldd	r27, Y+18	; 0x12
     422:	8d 91       	ld	r24, X+
     424:	9c 91       	ld	r25, X
     426:	80 83       	st	Z, r24
     428:	91 83       	std	Z+1, r25	; 0x01
}
     42a:	df 91       	pop	r29
     42c:	cf 91       	pop	r28
     42e:	1f 91       	pop	r17
     430:	0f 91       	pop	r16
     432:	ff 90       	pop	r15
     434:	ef 90       	pop	r14
     436:	df 90       	pop	r13
     438:	cf 90       	pop	r12
     43a:	bf 90       	pop	r11
     43c:	af 90       	pop	r10
     43e:	9f 90       	pop	r9
     440:	8f 90       	pop	r8
     442:	08 95       	ret

00000444 <ManualMotorControl>:

void ManualMotorControl(MotorType motor){
     444:	ef 92       	push	r14
     446:	ff 92       	push	r15
     448:	0f 93       	push	r16
     44a:	1f 93       	push	r17
     44c:	cf 93       	push	r28
     44e:	df 93       	push	r29
     450:	c8 2f       	mov	r28, r24
	MotorControlObj* m = motor ? &StepperMotorCtrl : &LinearMotorCtrl; //choose motor control stepper or linear
     452:	88 23       	and	r24, r24
     454:	19 f0       	breq	.+6      	; 0x45c <ManualMotorControl+0x18>
     456:	00 e0       	ldi	r16, 0x00	; 0
     458:	10 e6       	ldi	r17, 0x60	; 96
     45a:	02 c0       	rjmp	.+4      	; 0x460 <ManualMotorControl+0x1c>
     45c:	05 e2       	ldi	r16, 0x25	; 37
     45e:	10 e6       	ldi	r17, 0x60	; 96

	int16_t *joy_axis = (motor == MOTOR_STEPPER) ? &Joystick.X_Axis : &Joystick.Y_Axis; //choose joystick axis (for stepper - X axis, for linear Y axis)
     460:	c1 30       	cpi	r28, 0x01	; 1
     462:	39 f4       	brne	.+14     	; 0x472 <ManualMotorControl+0x2e>
     464:	0f 2e       	mov	r0, r31
     466:	fb ec       	ldi	r31, 0xCB	; 203
     468:	ef 2e       	mov	r14, r31
     46a:	f5 e6       	ldi	r31, 0x65	; 101
     46c:	ff 2e       	mov	r15, r31
     46e:	f0 2d       	mov	r31, r0
     470:	06 c0       	rjmp	.+12     	; 0x47e <ManualMotorControl+0x3a>
     472:	0f 2e       	mov	r0, r31
     474:	fd ec       	ldi	r31, 0xCD	; 205
     476:	ef 2e       	mov	r14, r31
     478:	f5 e6       	ldi	r31, 0x65	; 101
     47a:	ff 2e       	mov	r15, r31
     47c:	f0 2d       	mov	r31, r0
	bool SwapStepDir = (motor == MOTOR_STEPPER) ? true : false; //swaping directions for stepper, and keep as usual for linear
     47e:	d1 e0       	ldi	r29, 0x01	; 1
     480:	c1 30       	cpi	r28, 0x01	; 1
     482:	09 f0       	breq	.+2      	; 0x486 <ManualMotorControl+0x42>
     484:	d0 e0       	ldi	r29, 0x00	; 0

	if(*joy_axis == 0){ 
     486:	d7 01       	movw	r26, r14
     488:	8d 91       	ld	r24, X+
     48a:	9c 91       	ld	r25, X
     48c:	89 2b       	or	r24, r25
     48e:	69 f4       	brne	.+26     	; 0x4aa <ManualMotorControl+0x66>
		m->iface.stop();
     490:	d8 01       	movw	r26, r16
     492:	17 96       	adiw	r26, 0x07	; 7
     494:	ed 91       	ld	r30, X+
     496:	fc 91       	ld	r31, X
     498:	18 97       	sbiw	r26, 0x08	; 8
     49a:	09 95       	icall
		m->iface.disable();		
     49c:	d8 01       	movw	r26, r16
     49e:	13 96       	adiw	r26, 0x03	; 3
     4a0:	ed 91       	ld	r30, X+
     4a2:	fc 91       	ld	r31, X
     4a4:	14 97       	sbiw	r26, 0x04	; 4
     4a6:	09 95       	icall
     4a8:	24 c0       	rjmp	.+72     	; 0x4f2 <ManualMotorControl+0xae>
	}
	else{
		m->iface.enable(); //enabling driver
     4aa:	d8 01       	movw	r26, r16
     4ac:	11 96       	adiw	r26, 0x01	; 1
     4ae:	ed 91       	ld	r30, X+
     4b0:	fc 91       	ld	r31, X
     4b2:	12 97       	sbiw	r26, 0x02	; 2
     4b4:	09 95       	icall
		if(*joy_axis > 0)
     4b6:	f7 01       	movw	r30, r14
     4b8:	80 81       	ld	r24, Z
     4ba:	91 81       	ldd	r25, Z+1	; 0x01
     4bc:	18 16       	cp	r1, r24
     4be:	19 06       	cpc	r1, r25
     4c0:	44 f4       	brge	.+16     	; 0x4d2 <ManualMotorControl+0x8e>
			m->iface.set_direction(SwapStepDir); //set direction (stepper 1, linear 0)
     4c2:	d8 01       	movw	r26, r16
     4c4:	19 96       	adiw	r26, 0x09	; 9
     4c6:	ed 91       	ld	r30, X+
     4c8:	fc 91       	ld	r31, X
     4ca:	1a 97       	sbiw	r26, 0x0a	; 10
     4cc:	8d 2f       	mov	r24, r29
     4ce:	09 95       	icall
     4d0:	0a c0       	rjmp	.+20     	; 0x4e6 <ManualMotorControl+0xa2>
		else
			m->iface.set_direction(!SwapStepDir); // (stepper 0, linear 1)
     4d2:	d8 01       	movw	r26, r16
     4d4:	19 96       	adiw	r26, 0x09	; 9
     4d6:	ed 91       	ld	r30, X+
     4d8:	fc 91       	ld	r31, X
     4da:	1a 97       	sbiw	r26, 0x0a	; 10
     4dc:	81 e0       	ldi	r24, 0x01	; 1
     4de:	c1 30       	cpi	r28, 0x01	; 1
     4e0:	09 f4       	brne	.+2      	; 0x4e4 <ManualMotorControl+0xa0>
     4e2:	80 e0       	ldi	r24, 0x00	; 0
     4e4:	09 95       	icall
		m->iface.start(); // start generating pulses
     4e6:	d8 01       	movw	r26, r16
     4e8:	15 96       	adiw	r26, 0x05	; 5
     4ea:	ed 91       	ld	r30, X+
     4ec:	fc 91       	ld	r31, X
     4ee:	16 97       	sbiw	r26, 0x06	; 6
     4f0:	09 95       	icall
	}
}
     4f2:	df 91       	pop	r29
     4f4:	cf 91       	pop	r28
     4f6:	1f 91       	pop	r17
     4f8:	0f 91       	pop	r16
     4fa:	ff 90       	pop	r15
     4fc:	ef 90       	pop	r14
     4fe:	08 95       	ret

00000500 <work>:

void work(){
	if(Joystick.LatchSwitch){ //Manual mode: basic as possible- ignores all errors. Just pure motor control
     500:	80 91 d1 65 	lds	r24, 0x65D1	; 0x8065d1 <Joystick+0x6>
     504:	88 23       	and	r24, r24
     506:	39 f0       	breq	.+14     	; 0x516 <work+0x16>
		ManualMotorControl(MOTOR_STEPPER);
     508:	81 e0       	ldi	r24, 0x01	; 1
     50a:	0e 94 22 02 	call	0x444	; 0x444 <ManualMotorControl>
		ManualMotorControl(MOTOR_LINEAR);
     50e:	80 e0       	ldi	r24, 0x00	; 0
     510:	0e 94 22 02 	call	0x444	; 0x444 <ManualMotorControl>
     514:	08 95       	ret
	}
	else{//Auto mode
		if(!WSData.WS_lost_connecton_fault){ // only receiving data from RS485 network (Weather Station)
     516:	80 91 e8 65 	lds	r24, 0x65E8	; 0x8065e8 <WSData+0xa>
     51a:	81 11       	cpse	r24, r1
     51c:	22 c0       	rjmp	.+68     	; 0x562 <work+0x62>
			if(WSData.windspeed > MAX_WIND){
     51e:	80 91 e4 65 	lds	r24, 0x65E4	; 0x8065e4 <WSData+0x6>
     522:	80 31       	cpi	r24, 0x10	; 16
     524:	48 f0       	brcs	.+18     	; 0x538 <work+0x38>
				get_safe_azimuth();
     526:	0e 94 88 00 	call	0x110	; 0x110 <get_safe_azimuth>
			Target.elevation = SAFE_ELEVATION;
     52a:	84 e1       	ldi	r24, 0x14	; 20
     52c:	90 e0       	ldi	r25, 0x00	; 0
     52e:	80 93 4a 60 	sts	0x604A, r24	; 0x80604a <Target>
     532:	90 93 4b 60 	sts	0x604B, r25	; 0x80604b <Target+0x1>
     536:	08 95       	ret
				}
				else{ // if not go to best day position (early morning, late at evening, or just dark day)
					Target.azimuth = 180; //South
					Target.elevation = WSData.topelevation; //day top elevation
				}		 
				Target.azimuth = WSData.azimuth;
     538:	ae ed       	ldi	r26, 0xDE	; 222
     53a:	b5 e6       	ldi	r27, 0x65	; 101
     53c:	8d 91       	ld	r24, X+
     53e:	9c 91       	ld	r25, X
     540:	11 97       	sbiw	r26, 0x01	; 1
     542:	ea e4       	ldi	r30, 0x4A	; 74
     544:	f0 e6       	ldi	r31, 0x60	; 96
     546:	85 83       	std	Z+5, r24	; 0x05
     548:	96 83       	std	Z+6, r25	; 0x06
				Target.elevation = WSData.elevation;
     54a:	12 96       	adiw	r26, 0x02	; 2
     54c:	8d 91       	ld	r24, X+
     54e:	9c 91       	ld	r25, X
     550:	13 97       	sbiw	r26, 0x03	; 3
     552:	80 83       	st	Z, r24
     554:	91 83       	std	Z+1, r25	; 0x01
				AutoMotorControl(MOTOR_LINEAR);
     556:	80 e0       	ldi	r24, 0x00	; 0
     558:	0e 94 dd 00 	call	0x1ba	; 0x1ba <AutoMotorControl>
				AutoMotorControl(MOTOR_STEPPER);
     55c:	81 e0       	ldi	r24, 0x01	; 1
     55e:	0e 94 dd 00 	call	0x1ba	; 0x1ba <AutoMotorControl>
     562:	08 95       	ret

00000564 <ADC0_init>:
 * - Prescaler: Division by 4
 * - Resolution: 12-bit
 * - Enables the ADC.
 */
void ADC0_init() {
    ADC0.CTRLB = ADC_SAMPNUM_ACC128_gc; // 1 measurements
     564:	e0 e0       	ldi	r30, 0x00	; 0
     566:	f6 e0       	ldi	r31, 0x06	; 6
     568:	87 e0       	ldi	r24, 0x07	; 7
     56a:	81 83       	std	Z+1, r24	; 0x01
    ADC0.CTRLC = ADC_PRESC_DIV4_gc; // 24Mhz / 16 ADC speed
     56c:	81 e0       	ldi	r24, 0x01	; 1
     56e:	82 83       	std	Z+2, r24	; 0x02
    ADC0.CTRLA = ADC_ENABLE_bm | ADC_RESSEL_12BIT_gc; // 12-bit resolution
     570:	80 83       	st	Z, r24
     572:	08 95       	ret

00000574 <ADC0_SetupJoystick>:
}


void ADC0_SetupJoystick(uint8_t axis) {
    VREF.ADC0REF = VREF_REFSEL_VDD_gc;
     574:	95 e0       	ldi	r25, 0x05	; 5
     576:	90 93 b0 00 	sts	0x00B0, r25	; 0x8000b0 <__TEXT_REGION_LENGTH__+0x7f00b0>
    ADC0.MUXPOS = axis;
     57a:	80 93 08 06 	sts	0x0608, r24	; 0x800608 <__TEXT_REGION_LENGTH__+0x7f0608>
     57e:	08 95       	ret

00000580 <ADC0_SetupLinearMotor>:

}

void ADC0_SetupLinearMotor(uint8_t parameter) {
	switch (parameter)
     580:	81 30       	cpi	r24, 0x01	; 1
     582:	39 f4       	brne	.+14     	; 0x592 <ADC0_SetupLinearMotor+0x12>
	{
		case 1: //I
			VREF.ADC0REF = VREF_REFSEL_4V096_gc; // up to 9,21A (if MCU Vcc== 4.096V)| 0A= 0.4096V| 4.096- 0.4096 = 3,6864V/0,4 = 9.21A | max current at normal working conditions for linear motor is ~4A			
     584:	82 e0       	ldi	r24, 0x02	; 2
     586:	80 93 b0 00 	sts	0x00B0, r24	; 0x8000b0 <__TEXT_REGION_LENGTH__+0x7f00b0>
			ADC0.MUXPOS = ADC_MUXPOS_AIN1_gc; //PD1
     58a:	81 e0       	ldi	r24, 0x01	; 1
     58c:	80 93 08 06 	sts	0x0608, r24	; 0x800608 <__TEXT_REGION_LENGTH__+0x7f0608>
		break;
     590:	08 95       	ret
		default://U
			VREF.ADC0REF = VREF_REFSEL_2V048_gc; //AMC1311 full range is 2.0V for linear motor 2.0V = 30.0V (300k)
     592:	81 e0       	ldi	r24, 0x01	; 1
     594:	80 93 b0 00 	sts	0x00B0, r24	; 0x8000b0 <__TEXT_REGION_LENGTH__+0x7f00b0>
			ADC0.MUXPOS = ADC_MUXPOS_AIN31_gc; //PC3
     598:	8f e1       	ldi	r24, 0x1F	; 31
     59a:	80 93 08 06 	sts	0x0608, r24	; 0x800608 <__TEXT_REGION_LENGTH__+0x7f0608>
     59e:	08 95       	ret

000005a0 <ADC0_SetupStepper>:
	}

}

void ADC0_SetupStepper(uint8_t parameter) {
	switch (parameter)
     5a0:	81 30       	cpi	r24, 0x01	; 1
     5a2:	39 f4       	brne	.+14     	; 0x5b2 <ADC0_SetupStepper+0x12>
	{
		case 1: //I
			VREF.ADC0REF = VREF_REFSEL_4V096_gc; // up to 9,21A (if MCU Vcc== 4.096V)| 0A= 0.4096V| 4.096- 0.4096 = 3,6864V/0,4 = 9.21A | max current at normal working conditions for stepper motor is ~6A
     5a4:	82 e0       	ldi	r24, 0x02	; 2
     5a6:	80 93 b0 00 	sts	0x00B0, r24	; 0x8000b0 <__TEXT_REGION_LENGTH__+0x7f00b0>
			ADC0.MUXPOS = ADC_MUXPOS_AIN16_gc; //PF0
     5aa:	80 e1       	ldi	r24, 0x10	; 16
     5ac:	80 93 08 06 	sts	0x0608, r24	; 0x800608 <__TEXT_REGION_LENGTH__+0x7f0608>
		break;
     5b0:	08 95       	ret
		default://U
			VREF.ADC0REF = VREF_REFSEL_2V048_gc; //AMC1311 full range is 2.0V for stepper 2.0V = 71.0V (710k)
     5b2:	81 e0       	ldi	r24, 0x01	; 1
     5b4:	80 93 b0 00 	sts	0x00B0, r24	; 0x8000b0 <__TEXT_REGION_LENGTH__+0x7f00b0>
			ADC0.MUXPOS = ADC_MUXPOS_AIN6_gc; //PD6
     5b8:	86 e0       	ldi	r24, 0x06	; 6
     5ba:	80 93 08 06 	sts	0x0608, r24	; 0x800608 <__TEXT_REGION_LENGTH__+0x7f0608>
     5be:	08 95       	ret

000005c0 <ADC0_SetupSysVoltage>:
	}

}

void ADC0_SetupSysVoltage(){
	VREF.ADC0REF = VREF_REFSEL_1V024_gc; // 1.024V = 4096| 1.024 = 10.24V|
     5c0:	10 92 b0 00 	sts	0x00B0, r1	; 0x8000b0 <__TEXT_REGION_LENGTH__+0x7f00b0>
	ADC0.MUXPOS = ADC_MUXPOS_VDDDIV10_gc; //5V = 0.5V
     5c4:	84 e4       	ldi	r24, 0x44	; 68
     5c6:	80 93 08 06 	sts	0x0608, r24	; 0x800608 <__TEXT_REGION_LENGTH__+0x7f0608>
     5ca:	08 95       	ret

000005cc <ADC0_read>:
 * appropriately.
 *
 * @return The ADC conversion result as a 12-bit value.
 */
uint16_t ADC0_read() {
    ADC0.COMMAND = ADC_STCONV_bm; // Start conversion
     5cc:	81 e0       	ldi	r24, 0x01	; 1
     5ce:	80 93 0a 06 	sts	0x060A, r24	; 0x80060a <__TEXT_REGION_LENGTH__+0x7f060a>
    while (!(ADC0.INTFLAGS & ADC_RESRDY_bm)); // Wait until result is ready
     5d2:	80 91 0d 06 	lds	r24, 0x060D	; 0x80060d <__TEXT_REGION_LENGTH__+0x7f060d>
     5d6:	80 ff       	sbrs	r24, 0
     5d8:	fc cf       	rjmp	.-8      	; 0x5d2 <ADC0_read+0x6>
    ADC0.INTFLAGS = ADC_RESRDY_bm; // Clear result ready flag
     5da:	e0 e0       	ldi	r30, 0x00	; 0
     5dc:	f6 e0       	ldi	r31, 0x06	; 6
     5de:	81 e0       	ldi	r24, 0x01	; 1
     5e0:	85 87       	std	Z+13, r24	; 0x0d
    return ADC0.RES >> 4; // Shift result if accumulation is over 16
     5e2:	80 89       	ldd	r24, Z+16	; 0x10
     5e4:	91 89       	ldd	r25, Z+17	; 0x11
}
     5e6:	92 95       	swap	r25
     5e8:	82 95       	swap	r24
     5ea:	8f 70       	andi	r24, 0x0F	; 15
     5ec:	89 27       	eor	r24, r25
     5ee:	9f 70       	andi	r25, 0x0F	; 15
     5f0:	89 27       	eor	r24, r25
     5f2:	08 95       	ret

000005f4 <Read_MCU_Voltge>:

uint16_t Read_MCU_Voltge(){
ADC0_SetupSysVoltage();
     5f4:	0e 94 e0 02 	call	0x5c0	; 0x5c0 <ADC0_SetupSysVoltage>
return ADC0_read()*0.25; //ADC value * 10.26V (full adc range) / 4096 (Full adc range steps) exp: 1856 * 0.25 = 464 (4.64V)
     5f8:	0e 94 e6 02 	call	0x5cc	; 0x5cc <ADC0_read>
     5fc:	bc 01       	movw	r22, r24
     5fe:	80 e0       	ldi	r24, 0x00	; 0
     600:	90 e0       	ldi	r25, 0x00	; 0
     602:	0e 94 15 10 	call	0x202a	; 0x202a <__floatunsisf>
     606:	20 e0       	ldi	r18, 0x00	; 0
     608:	30 e0       	ldi	r19, 0x00	; 0
     60a:	40 e8       	ldi	r20, 0x80	; 128
     60c:	5e e3       	ldi	r21, 0x3E	; 62
     60e:	0e 94 a3 10 	call	0x2146	; 0x2146 <__mulsf3>
     612:	0e 94 e6 0f 	call	0x1fcc	; 0x1fcc <__fixunssfsi>
}
     616:	cb 01       	movw	r24, r22
     618:	08 95       	ret

0000061a <CLOCK_XOSCHF_clock_init>:
#include "Settings.h"

void CLOCK_XOSCHF_clock_init()
{
	/* Enable external (32 MHz) clock input */
	ccp_write_io((uint8_t *) &CLKCTRL.XOSCHFCTRLA, CLKCTRL_SELHF_EXTCLOCK_gc | CLKCTRL_FRQRANGE_24M_gc | CLKCTRL_ENABLE_bm);
     61a:	6b e0       	ldi	r22, 0x0B	; 11
     61c:	80 e8       	ldi	r24, 0x80	; 128
     61e:	90 e0       	ldi	r25, 0x00	; 0
     620:	0e 94 ec 15 	call	0x2bd8	; 0x2bd8 <ccp_write_io>

	/* Set the main clock to use external clock as source */
	ccp_write_io((uint8_t *) &CLKCTRL.MCLKCTRLA, CLKCTRL_CLKSEL_EXTCLK_gc);
     624:	63 e0       	ldi	r22, 0x03	; 3
     626:	80 e6       	ldi	r24, 0x60	; 96
     628:	90 e0       	ldi	r25, 0x00	; 0
     62a:	0e 94 ec 15 	call	0x2bd8	; 0x2bd8 <ccp_write_io>

	/* Wait for system oscillator change to complete */
	while (CLKCTRL.MCLKSTATUS & CLKCTRL_SOSC_bm)
     62e:	80 91 65 00 	lds	r24, 0x0065	; 0x800065 <__TEXT_REGION_LENGTH__+0x7f0065>
     632:	80 fd       	sbrc	r24, 0
     634:	fc cf       	rjmp	.-8      	; 0x62e <CLOCK_XOSCHF_clock_init+0x14>
	{};
	/* Configuration complete;*/
}
     636:	08 95       	ret

00000638 <crc8_cdma2000>:
 * of the input data. The result is returned as a single byte (CRC value).
 * 
 * @param data The input data to calculate the CRC for.
 * @return The CRC-8 checksum value for the data.
 */
uint8_t crc8_cdma2000(uint64_t data) {
     638:	2f 92       	push	r2
     63a:	3f 92       	push	r3
     63c:	4f 92       	push	r4
     63e:	5f 92       	push	r5
     640:	6f 92       	push	r6
     642:	7f 92       	push	r7
     644:	8f 92       	push	r8
     646:	9f 92       	push	r9
     648:	af 92       	push	r10
     64a:	bf 92       	push	r11
     64c:	cf 92       	push	r12
     64e:	df 92       	push	r13
     650:	ef 92       	push	r14
     652:	ff 92       	push	r15
     654:	0f 93       	push	r16
     656:	1f 93       	push	r17
     658:	cf 93       	push	r28
     65a:	df 93       	push	r29
     65c:	cd b7       	in	r28, 0x3d	; 61
     65e:	de b7       	in	r29, 0x3e	; 62
     660:	2b 97       	sbiw	r28, 0x0b	; 11
     662:	cd bf       	out	0x3d, r28	; 61
     664:	de bf       	out	0x3e, r29	; 62
     666:	c2 2e       	mov	r12, r18
     668:	b3 2e       	mov	r11, r19
     66a:	a4 2e       	mov	r10, r20
     66c:	95 2e       	mov	r9, r21
     66e:	86 2e       	mov	r8, r22
     670:	77 2e       	mov	r7, r23
     672:	68 2e       	mov	r6, r24
     674:	59 2e       	mov	r5, r25
    uint8_t crc = 0xFF;    ///< Initial CRC value.
    size_t length = 0;     ///< Length of the data in bytes.
    uint64_t temp = data;
     676:	f2 2e       	mov	r15, r18
     678:	03 2f       	mov	r16, r19
     67a:	14 2f       	mov	r17, r20
     67c:	5a 87       	std	Y+10, r21	; 0x0a
     67e:	69 83       	std	Y+1, r22	; 0x01
     680:	b7 2f       	mov	r27, r23
     682:	d8 2e       	mov	r13, r24
     684:	e9 2e       	mov	r14, r25
 * @param data The input data to calculate the CRC for.
 * @return The CRC-8 checksum value for the data.
 */
uint8_t crc8_cdma2000(uint64_t data) {
    uint8_t crc = 0xFF;    ///< Initial CRC value.
    size_t length = 0;     ///< Length of the data in bytes.
     686:	e0 e0       	ldi	r30, 0x00	; 0
     688:	f0 e0       	ldi	r31, 0x00	; 0
    uint64_t temp = data;

    // Calculate the number of bytes in the data.
    while (temp) {
     68a:	14 c0       	rjmp	.+40     	; 0x6b4 <crc8_cdma2000+0x7c>
        length++;
     68c:	31 96       	adiw	r30, 0x01	; 1
        temp >>= 8;
     68e:	2f 2d       	mov	r18, r15
     690:	30 2f       	mov	r19, r16
     692:	41 2f       	mov	r20, r17
     694:	5a 85       	ldd	r21, Y+10	; 0x0a
     696:	69 81       	ldd	r22, Y+1	; 0x01
     698:	7b 2f       	mov	r23, r27
     69a:	8d 2d       	mov	r24, r13
     69c:	9e 2d       	mov	r25, r14
     69e:	08 e0       	ldi	r16, 0x08	; 8
     6a0:	0e 94 8f 11 	call	0x231e	; 0x231e <__lshrdi3>
     6a4:	f2 2e       	mov	r15, r18
     6a6:	03 2f       	mov	r16, r19
     6a8:	14 2f       	mov	r17, r20
     6aa:	5a 87       	std	Y+10, r21	; 0x0a
     6ac:	69 83       	std	Y+1, r22	; 0x01
     6ae:	b7 2f       	mov	r27, r23
     6b0:	d8 2e       	mov	r13, r24
     6b2:	e9 2e       	mov	r14, r25
    uint8_t crc = 0xFF;    ///< Initial CRC value.
    size_t length = 0;     ///< Length of the data in bytes.
    uint64_t temp = data;

    // Calculate the number of bytes in the data.
    while (temp) {
     6b4:	2f 2d       	mov	r18, r15
     6b6:	30 2f       	mov	r19, r16
     6b8:	41 2f       	mov	r20, r17
     6ba:	5a 85       	ldd	r21, Y+10	; 0x0a
     6bc:	69 81       	ldd	r22, Y+1	; 0x01
     6be:	7b 2f       	mov	r23, r27
     6c0:	8d 2d       	mov	r24, r13
     6c2:	9e 2d       	mov	r25, r14
     6c4:	a0 e0       	ldi	r26, 0x00	; 0
     6c6:	0e 94 b7 11 	call	0x236e	; 0x236e <__cmpdi2_s8>
     6ca:	01 f7       	brne	.-64     	; 0x68c <crc8_cdma2000+0x54>
     6cc:	8f ef       	ldi	r24, 0xFF	; 255
     6ce:	8a 87       	std	Y+10, r24	; 0x0a
     6d0:	cb 86       	std	Y+11, r12	; 0x0b
     6d2:	b9 82       	std	Y+1, r11	; 0x01
     6d4:	4a 2c       	mov	r4, r10
     6d6:	39 2c       	mov	r3, r9
     6d8:	28 2c       	mov	r2, r8
     6da:	1a c0       	rjmp	.+52     	; 0x710 <crc8_cdma2000+0xd8>
        temp >>= 8;
    }

    // Process each byte in the data.
    while (length--) {
        crc = crc8_table[crc ^ ((data >> (length * 8)) & 0xFF)];
     6dc:	8d 01       	movw	r16, r26
     6de:	00 0f       	add	r16, r16
     6e0:	11 1f       	adc	r17, r17
     6e2:	00 0f       	add	r16, r16
     6e4:	11 1f       	adc	r17, r17
     6e6:	00 0f       	add	r16, r16
     6e8:	11 1f       	adc	r17, r17
     6ea:	2b 85       	ldd	r18, Y+11	; 0x0b
     6ec:	39 81       	ldd	r19, Y+1	; 0x01
     6ee:	44 2d       	mov	r20, r4
     6f0:	53 2d       	mov	r21, r3
     6f2:	62 2d       	mov	r22, r2
     6f4:	77 2d       	mov	r23, r7
     6f6:	86 2d       	mov	r24, r6
     6f8:	95 2d       	mov	r25, r5
     6fa:	0e 94 8f 11 	call	0x231e	; 0x231e <__lshrdi3>
     6fe:	8a 84       	ldd	r8, Y+10	; 0x0a
     700:	82 26       	eor	r8, r18
     702:	91 2c       	mov	r9, r1
     704:	f4 01       	movw	r30, r8
     706:	ea 54       	subi	r30, 0x4A	; 74
     708:	fc 49       	sbci	r31, 0x9C	; 156
     70a:	80 81       	ld	r24, Z
     70c:	8a 87       	std	Y+10, r24	; 0x0a
        length++;
        temp >>= 8;
    }

    // Process each byte in the data.
    while (length--) {
     70e:	fd 01       	movw	r30, r26
     710:	df 01       	movw	r26, r30
     712:	11 97       	sbiw	r26, 0x01	; 1
     714:	ef 2b       	or	r30, r31
     716:	11 f7       	brne	.-60     	; 0x6dc <crc8_cdma2000+0xa4>
     718:	8a 85       	ldd	r24, Y+10	; 0x0a
        crc = crc8_table[crc ^ ((data >> (length * 8)) & 0xFF)];
    }
    return crc;  ///< Return the calculated CRC.
}
     71a:	2b 96       	adiw	r28, 0x0b	; 11
     71c:	cd bf       	out	0x3d, r28	; 61
     71e:	de bf       	out	0x3e, r29	; 62
     720:	df 91       	pop	r29
     722:	cf 91       	pop	r28
     724:	1f 91       	pop	r17
     726:	0f 91       	pop	r16
     728:	ff 90       	pop	r15
     72a:	ef 90       	pop	r14
     72c:	df 90       	pop	r13
     72e:	cf 90       	pop	r12
     730:	bf 90       	pop	r11
     732:	af 90       	pop	r10
     734:	9f 90       	pop	r9
     736:	8f 90       	pop	r8
     738:	7f 90       	pop	r7
     73a:	6f 90       	pop	r6
     73c:	5f 90       	pop	r5
     73e:	4f 90       	pop	r4
     740:	3f 90       	pop	r3
     742:	2f 90       	pop	r2
     744:	08 95       	ret

00000746 <verify_crc8_cdma2000>:
 * without the CRC byte. Otherwise, it returns 0 to indicate a mismatch.
 * 
 * @param data_with_crc The input data with the CRC byte appended.
 * @return The data without the CRC byte if the checksum is valid, or 0 if invalid.
 */
uint8_t verify_crc8_cdma2000(uint64_t data_without_crc, uint8_t crc) {
     746:	0f 93       	push	r16
     748:	cf 93       	push	r28
     74a:	c2 2f       	mov	r28, r18

	return crc8_cdma2000(data_without_crc) == crc ?  data_without_crc : 0;
     74c:	0e 94 1c 03 	call	0x638	; 0x638 <crc8_cdma2000>
     750:	80 13       	cpse	r24, r16
     752:	02 c0       	rjmp	.+4      	; 0x758 <verify_crc8_cdma2000+0x12>
     754:	8c 2f       	mov	r24, r28
     756:	01 c0       	rjmp	.+2      	; 0x75a <verify_crc8_cdma2000+0x14>
     758:	80 e0       	ldi	r24, 0x00	; 0

}
     75a:	cf 91       	pop	r28
     75c:	0f 91       	pop	r16
     75e:	08 95       	ret

00000760 <verify_crc8_cdma2000_v2>:


uint8_t verify_crc8_cdma2000_v2(uint8_t *data, uint8_t crc) {
     760:	ac 01       	movw	r20, r24
	uint16_t saveOneBit = ((data[4] & 0x07) << 12) | (data[5] & 0x0FFF); //wind direction (F)(values only 0- 7) + light level(FFF)(values only 0-4095) = (F+FFF)
	buf[7] = (uint8_t)(saveOneBit >> 8); //split wind direction and part of light level data
	buf[8] = (uint8_t)(saveOneBit & 0xFF); // left part of light level*/

	uint8_t calculatedcrc = 0xFF;
	for (size_t i = 0; i < 9; i++) { // length = 8 baitai
     762:	20 e0       	ldi	r18, 0x00	; 0
     764:	30 e0       	ldi	r19, 0x00	; 0
	buf[6] = (uint8_t)data[3]; // uint8_t wind speed (FF)
	uint16_t saveOneBit = ((data[4] & 0x07) << 12) | (data[5] & 0x0FFF); //wind direction (F)(values only 0- 7) + light level(FFF)(values only 0-4095) = (F+FFF)
	buf[7] = (uint8_t)(saveOneBit >> 8); //split wind direction and part of light level data
	buf[8] = (uint8_t)(saveOneBit & 0xFF); // left part of light level*/

	uint8_t calculatedcrc = 0xFF;
     766:	ef ef       	ldi	r30, 0xFF	; 255
	for (size_t i = 0; i < 9; i++) { // length = 8 baitai
     768:	0b c0       	rjmp	.+22     	; 0x780 <verify_crc8_cdma2000_v2+0x20>
		calculatedcrc = crc8_table[calculatedcrc ^ data[i]];
     76a:	da 01       	movw	r26, r20
     76c:	a2 0f       	add	r26, r18
     76e:	b3 1f       	adc	r27, r19
     770:	9c 91       	ld	r25, X
     772:	e9 27       	eor	r30, r25
     774:	f0 e0       	ldi	r31, 0x00	; 0
     776:	ea 54       	subi	r30, 0x4A	; 74
     778:	fc 49       	sbci	r31, 0x9C	; 156
     77a:	e0 81       	ld	r30, Z
	uint16_t saveOneBit = ((data[4] & 0x07) << 12) | (data[5] & 0x0FFF); //wind direction (F)(values only 0- 7) + light level(FFF)(values only 0-4095) = (F+FFF)
	buf[7] = (uint8_t)(saveOneBit >> 8); //split wind direction and part of light level data
	buf[8] = (uint8_t)(saveOneBit & 0xFF); // left part of light level*/

	uint8_t calculatedcrc = 0xFF;
	for (size_t i = 0; i < 9; i++) { // length = 8 baitai
     77c:	2f 5f       	subi	r18, 0xFF	; 255
     77e:	3f 4f       	sbci	r19, 0xFF	; 255
     780:	29 30       	cpi	r18, 0x09	; 9
     782:	31 05       	cpc	r19, r1
     784:	90 f3       	brcs	.-28     	; 0x76a <verify_crc8_cdma2000_v2+0xa>
		calculatedcrc = crc8_table[calculatedcrc ^ data[i]];
	}
	return calculatedcrc == crc ? calculatedcrc : 0 ;
     786:	e6 17       	cp	r30, r22
     788:	11 f0       	breq	.+4      	; 0x78e <verify_crc8_cdma2000_v2+0x2e>
     78a:	80 e0       	ldi	r24, 0x00	; 0
     78c:	08 95       	ret
     78e:	8e 2f       	mov	r24, r30

     790:	08 95       	ret

00000792 <hexToUint64>:
 *  Author: Saulius
 */ 
#include "Settings.h"
#include "FOUSARTVar.h"

uint64_t hexToUint64(const char *str) {
     792:	0f 93       	push	r16
     794:	cf 93       	push	r28
     796:	df 93       	push	r29
     798:	fc 01       	movw	r30, r24
	uint64_t result = 0;
     79a:	20 e0       	ldi	r18, 0x00	; 0
     79c:	30 e0       	ldi	r19, 0x00	; 0
     79e:	40 e0       	ldi	r20, 0x00	; 0
     7a0:	50 e0       	ldi	r21, 0x00	; 0
     7a2:	60 e0       	ldi	r22, 0x00	; 0
     7a4:	70 e0       	ldi	r23, 0x00	; 0
     7a6:	80 e0       	ldi	r24, 0x00	; 0
     7a8:	90 e0       	ldi	r25, 0x00	; 0
	char c;

	while ((c = *str++)) {
     7aa:	3a c0       	rjmp	.+116    	; 0x820 <hexToUint64+0x8e>
		result <<= 4; // kiekvienas hex simbolis = 4 bitai
     7ac:	04 e0       	ldi	r16, 0x04	; 4
     7ae:	0e 94 74 11 	call	0x22e8	; 0x22e8 <__ashldi3>

		if (c >= '0' && c <= '9') {
     7b2:	e0 ed       	ldi	r30, 0xD0	; 208
     7b4:	ec 0f       	add	r30, r28
     7b6:	ea 30       	cpi	r30, 0x0A	; 10
     7b8:	70 f4       	brcc	.+28     	; 0x7d6 <hexToUint64+0x44>
			result |= (uint64_t)(c - '0');
     7ba:	d0 e0       	ldi	r29, 0x00	; 0
     7bc:	e0 97       	sbiw	r28, 0x30	; 48
     7be:	ed 2f       	mov	r30, r29
     7c0:	ee 0f       	add	r30, r30
     7c2:	ee 0b       	sbc	r30, r30
     7c4:	2c 2b       	or	r18, r28
     7c6:	3d 2b       	or	r19, r29
     7c8:	4e 2b       	or	r20, r30
     7ca:	5e 2b       	or	r21, r30
     7cc:	6e 2b       	or	r22, r30
     7ce:	7e 2b       	or	r23, r30
     7d0:	8e 2b       	or	r24, r30
     7d2:	9e 2b       	or	r25, r30
     7d4:	24 c0       	rjmp	.+72     	; 0x81e <hexToUint64+0x8c>
			} else if (c >= 'A' && c <= 'F') {
     7d6:	ef eb       	ldi	r30, 0xBF	; 191
     7d8:	ec 0f       	add	r30, r28
     7da:	e6 30       	cpi	r30, 0x06	; 6
     7dc:	70 f4       	brcc	.+28     	; 0x7fa <hexToUint64+0x68>
			result |= (uint64_t)(c - 'A' + 10);
     7de:	d0 e0       	ldi	r29, 0x00	; 0
     7e0:	e7 97       	sbiw	r28, 0x37	; 55
     7e2:	ed 2f       	mov	r30, r29
     7e4:	ee 0f       	add	r30, r30
     7e6:	ee 0b       	sbc	r30, r30
     7e8:	2c 2b       	or	r18, r28
     7ea:	3d 2b       	or	r19, r29
     7ec:	4e 2b       	or	r20, r30
     7ee:	5e 2b       	or	r21, r30
     7f0:	6e 2b       	or	r22, r30
     7f2:	7e 2b       	or	r23, r30
     7f4:	8e 2b       	or	r24, r30
     7f6:	9e 2b       	or	r25, r30
     7f8:	12 c0       	rjmp	.+36     	; 0x81e <hexToUint64+0x8c>
			} else if (c >= 'a' && c <= 'f') {
     7fa:	ef e9       	ldi	r30, 0x9F	; 159
     7fc:	ec 0f       	add	r30, r28
     7fe:	e6 30       	cpi	r30, 0x06	; 6
     800:	a8 f4       	brcc	.+42     	; 0x82c <hexToUint64+0x9a>
			result |= (uint64_t)(c - 'a' + 10);
     802:	d0 e0       	ldi	r29, 0x00	; 0
     804:	c7 55       	subi	r28, 0x57	; 87
     806:	d1 09       	sbc	r29, r1
     808:	ed 2f       	mov	r30, r29
     80a:	ee 0f       	add	r30, r30
     80c:	ee 0b       	sbc	r30, r30
     80e:	2c 2b       	or	r18, r28
     810:	3d 2b       	or	r19, r29
     812:	4e 2b       	or	r20, r30
     814:	5e 2b       	or	r21, r30
     816:	6e 2b       	or	r22, r30
     818:	7e 2b       	or	r23, r30
     81a:	8e 2b       	or	r24, r30
     81c:	9e 2b       	or	r25, r30
     81e:	fd 01       	movw	r30, r26

uint64_t hexToUint64(const char *str) {
	uint64_t result = 0;
	char c;

	while ((c = *str++)) {
     820:	df 01       	movw	r26, r30
     822:	11 96       	adiw	r26, 0x01	; 1
     824:	c0 81       	ld	r28, Z
     826:	c1 11       	cpse	r28, r1
     828:	c1 cf       	rjmp	.-126    	; 0x7ac <hexToUint64+0x1a>
     82a:	08 c0       	rjmp	.+16     	; 0x83c <hexToUint64+0xaa>
			result |= (uint64_t)(c - 'A' + 10);
			} else if (c >= 'a' && c <= 'f') {
			result |= (uint64_t)(c - 'a' + 10);
			} else {
			// netinkamas simbolis
			return 0;
     82c:	20 e0       	ldi	r18, 0x00	; 0
     82e:	30 e0       	ldi	r19, 0x00	; 0
     830:	40 e0       	ldi	r20, 0x00	; 0
     832:	50 e0       	ldi	r21, 0x00	; 0
     834:	60 e0       	ldi	r22, 0x00	; 0
     836:	70 e0       	ldi	r23, 0x00	; 0
     838:	80 e0       	ldi	r24, 0x00	; 0
     83a:	90 e0       	ldi	r25, 0x00	; 0
		}
	}
	return result;
}
     83c:	df 91       	pop	r29
     83e:	cf 91       	pop	r28
     840:	0f 91       	pop	r16
     842:	08 95       	ret

00000844 <FODataSplitter>:

void FODataSplitter(char *command) {
     844:	7f 92       	push	r7
     846:	8f 92       	push	r8
     848:	9f 92       	push	r9
     84a:	af 92       	push	r10
     84c:	bf 92       	push	r11
     84e:	cf 92       	push	r12
     850:	df 92       	push	r13
     852:	ef 92       	push	r14
     854:	ff 92       	push	r15
     856:	0f 93       	push	r16
     858:	1f 93       	push	r17
     85a:	cf 93       	push	r28
     85c:	df 93       	push	r29
     85e:	cd b7       	in	r28, 0x3d	; 61
     860:	de b7       	in	r29, 0x3e	; 62
     862:	69 97       	sbiw	r28, 0x19	; 25
     864:	cd bf       	out	0x3d, r28	; 61
     866:	de bf       	out	0x3e, r29	; 62
     868:	6c 01       	movw	r12, r24
	if (strncmp(command, "00000000000000", 14) == 0) { //if elevation angle, azimuth angle, solar cells voltage and current = 0 meaning it is FO optic fault: bad signal
     86a:	4e e0       	ldi	r20, 0x0E	; 14
     86c:	50 e0       	ldi	r21, 0x00	; 0
     86e:	66 eb       	ldi	r22, 0xB6	; 182
     870:	74 e6       	ldi	r23, 0x64	; 100
     872:	0e 94 0f 13 	call	0x261e	; 0x261e <strncmp>
     876:	89 2b       	or	r24, r25
     878:	21 f4       	brne	.+8      	; 0x882 <FODataSplitter+0x3e>
		SensorData.FO_bad_signal_fault = true; //exp. hard bended fo
     87a:	81 e0       	ldi	r24, 0x01	; 1
     87c:	80 93 b2 65 	sts	0x65B2, r24	; 0x8065b2 <__data_end+0x10>
     880:	dc c0       	rjmp	.+440    	; 0xa3a <FODataSplitter+0x1f6>
	}
	else{
		const uint8_t lengths[] = {4, 4, 3, 3, 1};
     882:	85 e0       	ldi	r24, 0x05	; 5
     884:	e3 e9       	ldi	r30, 0x93	; 147
     886:	f3 e6       	ldi	r31, 0x63	; 99
     888:	de 01       	movw	r26, r28
     88a:	55 96       	adiw	r26, 0x15	; 21
     88c:	01 90       	ld	r0, Z+
     88e:	0d 92       	st	X+, r0
     890:	8a 95       	dec	r24
     892:	e1 f7       	brne	.-8      	; 0x88c <FODataSplitter+0x48>
		char temp[MESSAGE_LENGTH_FO-2];

		strncpy(temp, command, MESSAGE_LENGTH_FO-2);
     894:	4f e0       	ldi	r20, 0x0F	; 15
     896:	50 e0       	ldi	r21, 0x00	; 0
     898:	b6 01       	movw	r22, r12
     89a:	ce 01       	movw	r24, r28
     89c:	01 96       	adiw	r24, 0x01	; 1
     89e:	0e 94 1d 13 	call	0x263a	; 0x263a <strncpy>
		temp[MESSAGE_LENGTH_FO-2] = '\0';
     8a2:	18 8a       	std	Y+16, r1	; 0x10
		uint64_t datatocheck = hexToUint64(temp);
     8a4:	ce 01       	movw	r24, r28
     8a6:	01 96       	adiw	r24, 0x01	; 1
     8a8:	0e 94 c9 03 	call	0x792	; 0x792 <hexToUint64>
     8ac:	72 2e       	mov	r7, r18
     8ae:	83 2e       	mov	r8, r19
     8b0:	94 2e       	mov	r9, r20
     8b2:	a5 2e       	mov	r10, r21
     8b4:	b6 2e       	mov	r11, r22
     8b6:	e7 2e       	mov	r14, r23
     8b8:	f8 2e       	mov	r15, r24
     8ba:	19 2f       	mov	r17, r25
		strncpy(temp, command + MESSAGE_LENGTH_FO-2, 2);
     8bc:	42 e0       	ldi	r20, 0x02	; 2
     8be:	50 e0       	ldi	r21, 0x00	; 0
     8c0:	b6 01       	movw	r22, r12
     8c2:	61 5f       	subi	r22, 0xF1	; 241
     8c4:	7f 4f       	sbci	r23, 0xFF	; 255
     8c6:	ce 01       	movw	r24, r28
     8c8:	01 96       	adiw	r24, 0x01	; 1
     8ca:	0e 94 1d 13 	call	0x263a	; 0x263a <strncpy>
		temp[2] = '\0';
     8ce:	1b 82       	std	Y+3, r1	; 0x03
		uint8_t crctocheck = (uint8_t)strtol(temp, NULL, 16);
     8d0:	40 e1       	ldi	r20, 0x10	; 16
     8d2:	50 e0       	ldi	r21, 0x00	; 0
     8d4:	60 e0       	ldi	r22, 0x00	; 0
     8d6:	70 e0       	ldi	r23, 0x00	; 0
     8d8:	ce 01       	movw	r24, r28
     8da:	01 96       	adiw	r24, 0x01	; 1
     8dc:	0e 94 d7 11 	call	0x23ae	; 0x23ae <strtol>

		if(verify_crc8_cdma2000(datatocheck, crctocheck)){ //if data valid update it
     8e0:	06 2f       	mov	r16, r22
     8e2:	27 2d       	mov	r18, r7
     8e4:	38 2d       	mov	r19, r8
     8e6:	49 2d       	mov	r20, r9
     8e8:	5a 2d       	mov	r21, r10
     8ea:	6b 2d       	mov	r22, r11
     8ec:	7e 2d       	mov	r23, r14
     8ee:	8f 2d       	mov	r24, r15
     8f0:	91 2f       	mov	r25, r17
     8f2:	0e 94 a3 03 	call	0x746	; 0x746 <verify_crc8_cdma2000>
     8f6:	81 11       	cpse	r24, r1
     8f8:	69 c0       	rjmp	.+210    	; 0x9cc <FODataSplitter+0x188>
     8fa:	9c c0       	rjmp	.+312    	; 0xa34 <FODataSplitter+0x1f0>
			//screen_write_formatted_text("data is correct", 1, ALIGN_CENTER);//uncomment if nedded// crc ok
			const char *p = command;
			uint8_t EndSwitchesValue = 0;

			for (uint8_t i = 0; i < 5; i++) {
				char token[5] = {0};
     8fc:	5e 01       	movw	r10, r28
     8fe:	80 e1       	ldi	r24, 0x10	; 16
     900:	a8 0e       	add	r10, r24
     902:	b1 1c       	adc	r11, r1
     904:	85 e0       	ldi	r24, 0x05	; 5
     906:	f5 01       	movw	r30, r10
     908:	11 92       	st	Z+, r1
     90a:	8a 95       	dec	r24
     90c:	e9 f7       	brne	.-6      	; 0x908 <FODataSplitter+0xc4>

				memcpy(token, p, lengths[i]);
     90e:	e5 e1       	ldi	r30, 0x15	; 21
     910:	f0 e0       	ldi	r31, 0x00	; 0
     912:	ec 0f       	add	r30, r28
     914:	fd 1f       	adc	r31, r29
     916:	e1 0f       	add	r30, r17
     918:	f1 1d       	adc	r31, r1
     91a:	e0 80       	ld	r14, Z
     91c:	f1 2c       	mov	r15, r1
     91e:	a7 01       	movw	r20, r14
     920:	b6 01       	movw	r22, r12
     922:	c5 01       	movw	r24, r10
     924:	0e 94 f6 12 	call	0x25ec	; 0x25ec <memcpy>
				token[lengths[i]] = '\0';
     928:	f5 01       	movw	r30, r10
     92a:	ee 0d       	add	r30, r14
     92c:	ff 1d       	adc	r31, r15
     92e:	10 82       	st	Z, r1

				switch (i) {
     930:	12 30       	cpi	r17, 0x02	; 2
     932:	29 f1       	breq	.+74     	; 0x97e <FODataSplitter+0x13a>
     934:	28 f4       	brcc	.+10     	; 0x940 <FODataSplitter+0xfc>
     936:	11 23       	and	r17, r17
     938:	41 f0       	breq	.+16     	; 0x94a <FODataSplitter+0x106>
     93a:	11 30       	cpi	r17, 0x01	; 1
     93c:	99 f0       	breq	.+38     	; 0x964 <FODataSplitter+0x120>
     93e:	42 c0       	rjmp	.+132    	; 0x9c4 <FODataSplitter+0x180>
     940:	13 30       	cpi	r17, 0x03	; 3
     942:	51 f1       	breq	.+84     	; 0x998 <FODataSplitter+0x154>
     944:	14 30       	cpi	r17, 0x04	; 4
     946:	a9 f1       	breq	.+106    	; 0x9b2 <FODataSplitter+0x16e>
     948:	3d c0       	rjmp	.+122    	; 0x9c4 <FODataSplitter+0x180>
					case 0: SensorData.HPElevation   = (uint16_t)strtol(token, NULL, 16); break;
     94a:	40 e1       	ldi	r20, 0x10	; 16
     94c:	50 e0       	ldi	r21, 0x00	; 0
     94e:	60 e0       	ldi	r22, 0x00	; 0
     950:	70 e0       	ldi	r23, 0x00	; 0
     952:	ce 01       	movw	r24, r28
     954:	40 96       	adiw	r24, 0x10	; 16
     956:	0e 94 d7 11 	call	0x23ae	; 0x23ae <strtol>
     95a:	60 93 a4 65 	sts	0x65A4, r22	; 0x8065a4 <__data_end+0x2>
     95e:	70 93 a5 65 	sts	0x65A5, r23	; 0x8065a5 <__data_end+0x3>
     962:	30 c0       	rjmp	.+96     	; 0x9c4 <FODataSplitter+0x180>
					case 1: SensorData.HPAzimuth     = (uint16_t)strtol(token, NULL, 16); break;
     964:	40 e1       	ldi	r20, 0x10	; 16
     966:	50 e0       	ldi	r21, 0x00	; 0
     968:	60 e0       	ldi	r22, 0x00	; 0
     96a:	70 e0       	ldi	r23, 0x00	; 0
     96c:	ce 01       	movw	r24, r28
     96e:	40 96       	adiw	r24, 0x10	; 16
     970:	0e 94 d7 11 	call	0x23ae	; 0x23ae <strtol>
     974:	60 93 a8 65 	sts	0x65A8, r22	; 0x8065a8 <__data_end+0x6>
     978:	70 93 a9 65 	sts	0x65A9, r23	; 0x8065a9 <__data_end+0x7>
     97c:	23 c0       	rjmp	.+70     	; 0x9c4 <FODataSplitter+0x180>
					case 2: SensorData.PVU         = (uint16_t)strtol(token, NULL, 16)/ U_I_Precizion; break;
     97e:	40 e1       	ldi	r20, 0x10	; 16
     980:	50 e0       	ldi	r21, 0x00	; 0
     982:	60 e0       	ldi	r22, 0x00	; 0
     984:	70 e0       	ldi	r23, 0x00	; 0
     986:	ce 01       	movw	r24, r28
     988:	40 96       	adiw	r24, 0x10	; 16
     98a:	0e 94 d7 11 	call	0x23ae	; 0x23ae <strtol>
     98e:	60 93 aa 65 	sts	0x65AA, r22	; 0x8065aa <__data_end+0x8>
     992:	70 93 ab 65 	sts	0x65AB, r23	; 0x8065ab <__data_end+0x9>
     996:	16 c0       	rjmp	.+44     	; 0x9c4 <FODataSplitter+0x180>
					case 3: SensorData.PVI         = (uint16_t)strtol(token, NULL, 16)/ U_I_Precizion; break;
     998:	40 e1       	ldi	r20, 0x10	; 16
     99a:	50 e0       	ldi	r21, 0x00	; 0
     99c:	60 e0       	ldi	r22, 0x00	; 0
     99e:	70 e0       	ldi	r23, 0x00	; 0
     9a0:	ce 01       	movw	r24, r28
     9a2:	40 96       	adiw	r24, 0x10	; 16
     9a4:	0e 94 d7 11 	call	0x23ae	; 0x23ae <strtol>
     9a8:	60 93 ac 65 	sts	0x65AC, r22	; 0x8065ac <__data_end+0xa>
     9ac:	70 93 ad 65 	sts	0x65AD, r23	; 0x8065ad <__data_end+0xb>
     9b0:	09 c0       	rjmp	.+18     	; 0x9c4 <FODataSplitter+0x180>
					case 4: EndSwitchesValue       = (uint8_t)strtol(token, NULL, 16); break; //common end switches value
     9b2:	40 e1       	ldi	r20, 0x10	; 16
     9b4:	50 e0       	ldi	r21, 0x00	; 0
     9b6:	60 e0       	ldi	r22, 0x00	; 0
     9b8:	70 e0       	ldi	r23, 0x00	; 0
     9ba:	ce 01       	movw	r24, r28
     9bc:	40 96       	adiw	r24, 0x10	; 16
     9be:	0e 94 d7 11 	call	0x23ae	; 0x23ae <strtol>
     9c2:	06 2f       	mov	r16, r22
				}

				p += lengths[i];
     9c4:	ce 0c       	add	r12, r14
     9c6:	df 1c       	adc	r13, r15
		if(verify_crc8_cdma2000(datatocheck, crctocheck)){ //if data valid update it
			//screen_write_formatted_text("data is correct", 1, ALIGN_CENTER);//uncomment if nedded// crc ok
			const char *p = command;
			uint8_t EndSwitchesValue = 0;

			for (uint8_t i = 0; i < 5; i++) {
     9c8:	1f 5f       	subi	r17, 0xFF	; 255
     9ca:	02 c0       	rjmp	.+4      	; 0x9d0 <FODataSplitter+0x18c>
     9cc:	10 e0       	ldi	r17, 0x00	; 0
     9ce:	00 e0       	ldi	r16, 0x00	; 0
     9d0:	15 30       	cpi	r17, 0x05	; 5
     9d2:	08 f4       	brcc	.+2      	; 0x9d6 <FODataSplitter+0x192>
     9d4:	93 cf       	rjmp	.-218    	; 0x8fc <FODataSplitter+0xb8>
					case 4: EndSwitchesValue       = (uint8_t)strtol(token, NULL, 16); break; //common end switches value
				}

				p += lengths[i];
			}
			SensorData.Elevation = SensorData.HPElevation / Angle_Precizion;
     9d6:	e2 ea       	ldi	r30, 0xA2	; 162
     9d8:	f5 e6       	ldi	r31, 0x65	; 101
     9da:	22 81       	ldd	r18, Z+2	; 0x02
     9dc:	33 81       	ldd	r19, Z+3	; 0x03
     9de:	36 95       	lsr	r19
     9e0:	27 95       	ror	r18
     9e2:	36 95       	lsr	r19
     9e4:	27 95       	ror	r18
     9e6:	ab e7       	ldi	r26, 0x7B	; 123
     9e8:	b4 e1       	ldi	r27, 0x14	; 20
     9ea:	0e 94 65 11 	call	0x22ca	; 0x22ca <__umulhisi3>
     9ee:	96 95       	lsr	r25
     9f0:	87 95       	ror	r24
     9f2:	80 83       	st	Z, r24
     9f4:	91 83       	std	Z+1, r25	; 0x01
			SensorData.Azimuth = SensorData.HPAzimuth / Angle_Precizion;
     9f6:	26 81       	ldd	r18, Z+6	; 0x06
     9f8:	37 81       	ldd	r19, Z+7	; 0x07
     9fa:	36 95       	lsr	r19
     9fc:	27 95       	ror	r18
     9fe:	36 95       	lsr	r19
     a00:	27 95       	ror	r18
     a02:	0e 94 65 11 	call	0x22ca	; 0x22ca <__umulhisi3>
     a06:	96 95       	lsr	r25
     a08:	87 95       	ror	r24
     a0a:	84 83       	std	Z+4, r24	; 0x04
     a0c:	95 83       	std	Z+5, r25	; 0x05
			//spliting end switch value to separate end switch value according to axis
			SensorData.ElMin = (EndSwitchesValue & 0x01) ? 1 : 0;
     a0e:	80 2f       	mov	r24, r16
     a10:	81 70       	andi	r24, 0x01	; 1
     a12:	84 87       	std	Z+12, r24	; 0x0c
			SensorData.ElMax = (EndSwitchesValue & 0x02) ? 1 : 0;
     a14:	01 fb       	bst	r16, 1
     a16:	88 27       	eor	r24, r24
     a18:	80 f9       	bld	r24, 0
     a1a:	85 87       	std	Z+13, r24	; 0x0d
			SensorData.AzMin = (EndSwitchesValue & 0x04) ? 1 : 0;
     a1c:	02 fb       	bst	r16, 2
     a1e:	88 27       	eor	r24, r24
     a20:	80 f9       	bld	r24, 0
     a22:	86 87       	std	Z+14, r24	; 0x0e
			SensorData.AzMax = (EndSwitchesValue & 0x08) ? 1 : 0;
     a24:	03 fb       	bst	r16, 3
     a26:	00 27       	eor	r16, r16
     a28:	00 f9       	bld	r16, 0
     a2a:	07 87       	std	Z+15, r16	; 0x0f
			SensorData.FO_bad_signal_fault = false; //reset error
     a2c:	10 8a       	std	Z+16, r1	; 0x10
			SensorData.FO_data_fault = false; //reset error
     a2e:	12 8a       	std	Z+18, r1	; 0x12
			SensorData.FO_lost_signal_fault = false; //reset error
     a30:	11 8a       	std	Z+17, r1	; 0x11
     a32:	03 c0       	rjmp	.+6      	; 0xa3a <FODataSplitter+0x1f6>

		}
		else{
			//uncomment if nedded
			//screen_write_formatted_text("data is corupted!", 1, ALIGN_CENTER); // bad crc
			SensorData.FO_data_fault = true;
     a34:	81 e0       	ldi	r24, 0x01	; 1
     a36:	80 93 b4 65 	sts	0x65B4, r24	; 0x8065b4 <__data_end+0x12>
		}	
	}
}
     a3a:	69 96       	adiw	r28, 0x19	; 25
     a3c:	cd bf       	out	0x3d, r28	; 61
     a3e:	de bf       	out	0x3e, r29	; 62
     a40:	df 91       	pop	r29
     a42:	cf 91       	pop	r28
     a44:	1f 91       	pop	r17
     a46:	0f 91       	pop	r16
     a48:	ff 90       	pop	r15
     a4a:	ef 90       	pop	r14
     a4c:	df 90       	pop	r13
     a4e:	cf 90       	pop	r12
     a50:	bf 90       	pop	r11
     a52:	af 90       	pop	r10
     a54:	9f 90       	pop	r9
     a56:	8f 90       	pop	r8
     a58:	7f 90       	pop	r7
     a5a:	08 95       	ret

00000a5c <FOReceiver>:
 * This function continuously reads incoming data via USART, processes the data, 
 * and executes the appropriate command. If an error occurs or a warning is set, 
 * it handles the corresponding state. The function handles both normal command 
 * processing and error recovery.
 */
void FOReceiver() {
     a5c:	ff 92       	push	r15
     a5e:	0f 93       	push	r16
     a60:	1f 93       	push	r17
     a62:	cf 93       	push	r28
     a64:	df 93       	push	r29
     a66:	cd b7       	in	r28, 0x3d	; 61
     a68:	de b7       	in	r29, 0x3e	; 62
     a6a:	61 97       	sbiw	r28, 0x11	; 17
     a6c:	cd bf       	out	0x3d, r28	; 61
     a6e:	de bf       	out	0x3e, r29	; 62
    uint8_t index = 0;
    char command[MESSAGE_LENGTH_FO] = {0}; // Empty command array
     a70:	fe 01       	movw	r30, r28
     a72:	31 96       	adiw	r30, 0x01	; 1
     a74:	81 e1       	ldi	r24, 0x11	; 17
     a76:	df 01       	movw	r26, r30
     a78:	1d 92       	st	X+, r1
     a7a:	8a 95       	dec	r24
     a7c:	e9 f7       	brne	.-6      	; 0xa78 <FOReceiver+0x1c>
    uint8_t start = 0;
	uint8_t timeout = 0;
	SensorData.FO_lost_signal_fault = false;// usart1 while loop exit
     a7e:	e2 ea       	ldi	r30, 0xA2	; 162
     a80:	f5 e6       	ldi	r31, 0x65	; 101
     a82:	11 8a       	std	Z+17, r1	; 0x11
	SensorData.FO_lost_connecton_fault = false; // while lop exit below
     a84:	13 8a       	std	Z+19, r1	; 0x13
 */
void FOReceiver() {
    uint8_t index = 0;
    char command[MESSAGE_LENGTH_FO] = {0}; // Empty command array
    uint8_t start = 0;
	uint8_t timeout = 0;
     a86:	10 e0       	ldi	r17, 0x00	; 0
 * processing and error recovery.
 */
void FOReceiver() {
    uint8_t index = 0;
    char command[MESSAGE_LENGTH_FO] = {0}; // Empty command array
    uint8_t start = 0;
     a88:	f1 2c       	mov	r15, r1
 * and executes the appropriate command. If an error occurs or a warning is set, 
 * it handles the corresponding state. The function handles both normal command 
 * processing and error recovery.
 */
void FOReceiver() {
    uint8_t index = 0;
     a8a:	00 e0       	ldi	r16, 0x00	; 0
     a8c:	03 c0       	rjmp	.+6      	; 0xa94 <FOReceiver+0x38>
            } else if (index < MESSAGE_LENGTH_FO) {
                command[index++] = c; // Store received character in command array
            }
        }
        if (c == '<') { // If received data start symbol
            start = 1;
     a8e:	ff 24       	eor	r15, r15
     a90:	f3 94       	inc	r15
            index = 0;
     a92:	00 e0       	ldi	r16, 0x00	; 0
	uint8_t timeout = 0;
	SensorData.FO_lost_signal_fault = false;// usart1 while loop exit
	SensorData.FO_lost_connecton_fault = false; // while lop exit below

    while (1) {
        char c = USART1_readChar(); // Reading a character from USART
     a94:	0e 94 ea 0b 	call	0x17d4	; 0x17d4 <USART1_readChar>

		if(SensorData.FO_lost_signal_fault){
     a98:	90 91 b3 65 	lds	r25, 0x65B3	; 0x8065b3 <__data_end+0x11>
     a9c:	99 23       	and	r25, r25
     a9e:	39 f0       	breq	.+14     	; 0xaae <FOReceiver+0x52>
			if (++timeout == CountForError_FO) { // Timeout condition if usart1 reading is halted
     aa0:	1f 5f       	subi	r17, 0xFF	; 255
     aa2:	13 30       	cpi	r17, 0x03	; 3
     aa4:	21 f4       	brne	.+8      	; 0xaae <FOReceiver+0x52>
				SensorData.FO_lost_connecton_fault = true;
     aa6:	81 e0       	ldi	r24, 0x01	; 1
     aa8:	80 93 b5 65 	sts	0x65B5, r24	; 0x8065b5 <__data_end+0x13>
				break;
     aac:	2c c0       	rjmp	.+88     	; 0xb06 <FOReceiver+0xaa>
			}
		}
        if (start) {
     aae:	ff 20       	and	r15, r15
     ab0:	39 f1       	breq	.+78     	; 0xb00 <FOReceiver+0xa4>
			
            if (c == '>') { // If received data end symbol			
     ab2:	8e 33       	cpi	r24, 0x3E	; 62
     ab4:	d9 f4       	brne	.+54     	; 0xaec <FOReceiver+0x90>
				start = 0;
				command[index] = '\0';
     ab6:	e1 e0       	ldi	r30, 0x01	; 1
     ab8:	f0 e0       	ldi	r31, 0x00	; 0
     aba:	ec 0f       	add	r30, r28
     abc:	fd 1f       	adc	r31, r29
     abe:	e0 0f       	add	r30, r16
     ac0:	f1 1d       	adc	r31, r1
     ac2:	10 82       	st	Z, r1
				index = 0;
				if (strcmp(command, SensorData.FreshDataPack) != 0){ //only if message is different
     ac4:	69 eb       	ldi	r22, 0xB9	; 185
     ac6:	75 e6       	ldi	r23, 0x65	; 101
     ac8:	ce 01       	movw	r24, r28
     aca:	01 96       	adiw	r24, 0x01	; 1
     acc:	0e 94 ff 12 	call	0x25fe	; 0x25fe <strcmp>
     ad0:	89 2b       	or	r24, r25
     ad2:	21 f0       	breq	.+8      	; 0xadc <FOReceiver+0x80>
					FODataSplitter(command); // Execute the received command //comment when testing lines below
     ad4:	ce 01       	movw	r24, r28
     ad6:	01 96       	adiw	r24, 0x01	; 1
     ad8:	0e 94 22 04 	call	0x844	; 0x844 <FODataSplitter>
				}
				strcpy(SensorData.FreshDataPack, command); // prevents from same message data splitting
     adc:	be 01       	movw	r22, r28
     ade:	6f 5f       	subi	r22, 0xFF	; 255
     ae0:	7f 4f       	sbci	r23, 0xFF	; 255
     ae2:	89 eb       	ldi	r24, 0xB9	; 185
     ae4:	95 e6       	ldi	r25, 0x65	; 101
     ae6:	0e 94 08 13 	call	0x2610	; 0x2610 <strcpy>
				break;
     aea:	0d c0       	rjmp	.+26     	; 0xb06 <FOReceiver+0xaa>
            } else if (index < MESSAGE_LENGTH_FO) {
     aec:	01 31       	cpi	r16, 0x11	; 17
     aee:	40 f4       	brcc	.+16     	; 0xb00 <FOReceiver+0xa4>
                command[index++] = c; // Store received character in command array
     af0:	e1 e0       	ldi	r30, 0x01	; 1
     af2:	f0 e0       	ldi	r31, 0x00	; 0
     af4:	ec 0f       	add	r30, r28
     af6:	fd 1f       	adc	r31, r29
     af8:	e0 0f       	add	r30, r16
     afa:	f1 1d       	adc	r31, r1
     afc:	80 83       	st	Z, r24
     afe:	0f 5f       	subi	r16, 0xFF	; 255
            }
        }
        if (c == '<') { // If received data start symbol
     b00:	8c 33       	cpi	r24, 0x3C	; 60
     b02:	41 f6       	brne	.-112    	; 0xa94 <FOReceiver+0x38>
     b04:	c4 cf       	rjmp	.-120    	; 0xa8e <FOReceiver+0x32>
            start = 1;
            index = 0;
        }
    }
}
     b06:	61 96       	adiw	r28, 0x11	; 17
     b08:	cd bf       	out	0x3d, r28	; 61
     b0a:	de bf       	out	0x3e, r29	; 62
     b0c:	df 91       	pop	r29
     b0e:	cf 91       	pop	r28
     b10:	1f 91       	pop	r17
     b12:	0f 91       	pop	r16
     b14:	ff 90       	pop	r15
     b16:	08 95       	ret

00000b18 <GPIO_init>:

#include "Settings.h"

void GPIO_init(){
    // Configure USART0 and USART1 pin routing
    PORTMUX.USARTROUTEA = PORTMUX_USART0_ALT1_gc | PORTMUX_USART1_ALT2_gc; // Set USART0 to alternative pins set 1, USART1 to alternative pins set 2
     b18:	e0 ee       	ldi	r30, 0xE0	; 224
     b1a:	f5 e0       	ldi	r31, 0x05	; 5
     b1c:	81 e1       	ldi	r24, 0x11	; 17
     b1e:	82 83       	std	Z+2, r24	; 0x02
    PORTMUX.TWIROUTEA = PORTMUX_TWI0_DEFAULT_gc; // Set TWI0 to default pins
     b20:	16 82       	std	Z+6, r1	; 0x06
	PORTMUX.TCAROUTEA = PORTMUX_TCA0_PORTD_gc;
     b22:	83 e0       	ldi	r24, 0x03	; 3
     b24:	87 83       	std	Z+7, r24	; 0x07
	PORTMUX.TCDROUTEA = PORTMUX_TCD0_ALT2_gc; ///< Select alternative WOC pin variant 2
     b26:	82 e0       	ldi	r24, 0x02	; 2
     b28:	81 87       	std	Z+9, r24	; 0x09


    // Configure Port A (PA) for RX LED, I2C SDA, SCL, USART0 TX, TX LED and XDIR
    PORTA.DIRSET = PIN2_bm | PIN3_bm | PIN4_bm | PIN6_bm | PIN7_bm; // Set PA2, PA3, PA4, PA7 as output (RX LED, I2C SDA, SCL, USART0 TX, TX LED, XDIR)
     b2a:	e0 e0       	ldi	r30, 0x00	; 0
     b2c:	f4 e0       	ldi	r31, 0x04	; 4
     b2e:	8c ed       	ldi	r24, 0xDC	; 220
     b30:	81 83       	std	Z+1, r24	; 0x01
    PORTA.DIRCLR = PIN1_bm | PIN5_bm; // Set  PA1 as Joystick button,  PA5 as input (USART0 RX)
     b32:	82 e2       	ldi	r24, 0x22	; 34
     b34:	82 83       	std	Z+2, r24	; 0x02
	PORTA.PIN1CTRL = PORT_PULLUPEN_bm; // Enable pull-up for PA1 (Joystick button)
     b36:	88 e0       	ldi	r24, 0x08	; 8
     b38:	81 8b       	std	Z+17, r24	; 0x11
    PORTA.PIN4CTRL = PORT_PULLUPEN_bm; // Enable pull-up for PA4 (I2C SCL)
     b3a:	84 8b       	std	Z+20, r24	; 0x14
    PORTA.PIN5CTRL = PORT_PULLUPEN_bm; // Enable pull-up for PA5 (USART0 RX)
     b3c:	85 8b       	std	Z+21, r24	; 0x15

    // Configure ADC pins for Joystick x and y axis
    PORTC.PIN1CTRL &= ~PORT_ISC_gm; // Disable interrupt sense for PC1 (X axis)
     b3e:	e0 e4       	ldi	r30, 0x40	; 64
     b40:	f4 e0       	ldi	r31, 0x04	; 4
     b42:	91 89       	ldd	r25, Z+17	; 0x11
     b44:	98 7f       	andi	r25, 0xF8	; 248
     b46:	91 8b       	std	Z+17, r25	; 0x11
    PORTC.PIN1CTRL |= PORT_ISC_INPUT_DISABLE_gc; // Disable input sense for PC1
     b48:	91 89       	ldd	r25, Z+17	; 0x11
     b4a:	94 60       	ori	r25, 0x04	; 4
     b4c:	91 8b       	std	Z+17, r25	; 0x11
    PORTC.PIN1CTRL &= ~PORT_PULLUPEN_bm; // Disable pull-up for PC1
     b4e:	91 89       	ldd	r25, Z+17	; 0x11
     b50:	97 7f       	andi	r25, 0xF7	; 247
     b52:	91 8b       	std	Z+17, r25	; 0x11

    PORTC.PIN2CTRL &= ~PORT_ISC_gm; // Disable interrupt sense for PC2 (Y axis)
     b54:	92 89       	ldd	r25, Z+18	; 0x12
     b56:	98 7f       	andi	r25, 0xF8	; 248
     b58:	92 8b       	std	Z+18, r25	; 0x12
    PORTC.PIN2CTRL |= PORT_ISC_INPUT_DISABLE_gc; // Disable input sense for PC2
     b5a:	92 89       	ldd	r25, Z+18	; 0x12
     b5c:	94 60       	ori	r25, 0x04	; 4
     b5e:	92 8b       	std	Z+18, r25	; 0x12
    PORTC.PIN2CTRL &= ~PORT_PULLUPEN_bm; // Disable pull-up for PC2
     b60:	92 89       	ldd	r25, Z+18	; 0x12
     b62:	97 7f       	andi	r25, 0xF7	; 247
     b64:	92 8b       	std	Z+18, r25	; 0x12

	PORTC.DIRSET = PIN0_bm; //Set PC0 as RX LED
     b66:	91 e0       	ldi	r25, 0x01	; 1
     b68:	91 83       	std	Z+1, r25	; 0x01

    // Configure Port D (PD) for USART1 TX and RX
    PORTD.DIRSET = PIN2_bm | PIN3_bm | PIN5_bm; //Set PD2 as linear motor disable pin, PD3 as PWM, PD5 as direction
     b6a:	9c e2       	ldi	r25, 0x2C	; 44
     b6c:	90 93 61 04 	sts	0x0461, r25	; 0x800461 <__TEXT_REGION_LENGTH__+0x7f0461>
	//PORTD.DIRCLR = PIN4_bm; //Linear motor driver TLE9201SG error flag pin

	PORTF.DIRSET = PIN1_bm | PIN2_bm | PIN3_bm; //Set PF1 as enable, PF2 as pulse, PIN3 as direction signals output for HBS86 driver
     b70:	e0 ea       	ldi	r30, 0xA0	; 160
     b72:	f4 e0       	ldi	r31, 0x04	; 4
     b74:	9e e0       	ldi	r25, 0x0E	; 14
     b76:	91 83       	std	Z+1, r25	; 0x01
	PORTF.DIRCLR = PIN4_bm | PIN5_bm; //Set PF4 as alarm and PF5 as Pend signals inputs from HBS86 driver
     b78:	90 e3       	ldi	r25, 0x30	; 48
     b7a:	92 83       	std	Z+2, r25	; 0x02
	PORTF.PIN4CTRL = PORT_PULLUPEN_bm; // Enable pull-up for PF4
     b7c:	84 8b       	std	Z+20, r24	; 0x14
	PORTF.PIN5CTRL = PORT_PULLUPEN_bm; // Enable pull-up for PF5
     b7e:	85 8b       	std	Z+21, r24	; 0x15
     b80:	08 95       	ret

00000b82 <I2C_init>:
        }
    }

    TWI0.MCTRLB |= TWI_MCMD_STOP_gc; // Send STOP signal to release the bus
    return data;
}
     b82:	e0 e0       	ldi	r30, 0x00	; 0
     b84:	f9 e0       	ldi	r31, 0x09	; 9
     b86:	82 e0       	ldi	r24, 0x02	; 2
     b88:	80 83       	st	Z, r24
     b8a:	85 e0       	ldi	r24, 0x05	; 5
     b8c:	86 83       	std	Z+6, r24	; 0x06
     b8e:	81 e0       	ldi	r24, 0x01	; 1
     b90:	83 83       	std	Z+3, r24	; 0x03
     b92:	85 83       	std	Z+5, r24	; 0x05
     b94:	08 95       	ret

00000b96 <TransmitAdd>:
     b96:	90 e0       	ldi	r25, 0x00	; 0
     b98:	88 0f       	add	r24, r24
     b9a:	99 1f       	adc	r25, r25
     b9c:	86 2b       	or	r24, r22
     b9e:	80 93 07 09 	sts	0x0907, r24	; 0x800907 <__TEXT_REGION_LENGTH__+0x7f0907>
     ba2:	48 e8       	ldi	r20, 0x88	; 136
     ba4:	53 e1       	ldi	r21, 0x13	; 19
     ba6:	60 e0       	ldi	r22, 0x00	; 0
     ba8:	70 e0       	ldi	r23, 0x00	; 0
     baa:	09 c0       	rjmp	.+18     	; 0xbbe <TransmitAdd+0x28>
     bac:	41 50       	subi	r20, 0x01	; 1
     bae:	51 09       	sbc	r21, r1
     bb0:	61 09       	sbc	r22, r1
     bb2:	71 09       	sbc	r23, r1
     bb4:	21 f4       	brne	.+8      	; 0xbbe <TransmitAdd+0x28>
     bb6:	83 e0       	ldi	r24, 0x03	; 3
     bb8:	80 93 04 09 	sts	0x0904, r24	; 0x800904 <__TEXT_REGION_LENGTH__+0x7f0904>
     bbc:	05 c0       	rjmp	.+10     	; 0xbc8 <TransmitAdd+0x32>
     bbe:	80 91 05 09 	lds	r24, 0x0905	; 0x800905 <__TEXT_REGION_LENGTH__+0x7f0905>
     bc2:	80 7c       	andi	r24, 0xC0	; 192
     bc4:	99 f3       	breq	.-26     	; 0xbac <TransmitAdd+0x16>
     bc6:	80 e0       	ldi	r24, 0x00	; 0
     bc8:	90 91 05 09 	lds	r25, 0x0905	; 0x800905 <__TEXT_REGION_LENGTH__+0x7f0905>
     bcc:	94 fd       	sbrc	r25, 4
     bce:	81 e0       	ldi	r24, 0x01	; 1
     bd0:	90 91 05 09 	lds	r25, 0x0905	; 0x800905 <__TEXT_REGION_LENGTH__+0x7f0905>
     bd4:	9c 70       	andi	r25, 0x0C	; 12
     bd6:	09 f0       	breq	.+2      	; 0xbda <TransmitAdd+0x44>
     bd8:	82 e0       	ldi	r24, 0x02	; 2
     bda:	88 23       	and	r24, r24
     bdc:	19 f0       	breq	.+6      	; 0xbe4 <TransmitAdd+0x4e>
     bde:	93 e0       	ldi	r25, 0x03	; 3
     be0:	90 93 04 09 	sts	0x0904, r25	; 0x800904 <__TEXT_REGION_LENGTH__+0x7f0904>
     be4:	80 93 ca 65 	sts	0x65CA, r24	; 0x8065ca <I2C>
     be8:	08 95       	ret

00000bea <TransmitByte>:
     bea:	28 2f       	mov	r18, r24
     bec:	90 91 05 09 	lds	r25, 0x0905	; 0x800905 <__TEXT_REGION_LENGTH__+0x7f0905>
     bf0:	94 fd       	sbrc	r25, 4
     bf2:	02 c0       	rjmp	.+4      	; 0xbf8 <TransmitByte+0xe>
     bf4:	80 e0       	ldi	r24, 0x00	; 0
     bf6:	01 c0       	rjmp	.+2      	; 0xbfa <TransmitByte+0x10>
     bf8:	81 e0       	ldi	r24, 0x01	; 1
     bfa:	90 91 05 09 	lds	r25, 0x0905	; 0x800905 <__TEXT_REGION_LENGTH__+0x7f0905>
     bfe:	9c 70       	andi	r25, 0x0C	; 12
     c00:	09 f0       	breq	.+2      	; 0xc04 <TransmitByte+0x1a>
     c02:	82 e0       	ldi	r24, 0x02	; 2
     c04:	88 23       	and	r24, r24
     c06:	19 f0       	breq	.+6      	; 0xc0e <TransmitByte+0x24>
     c08:	93 e0       	ldi	r25, 0x03	; 3
     c0a:	90 93 04 09 	sts	0x0904, r25	; 0x800904 <__TEXT_REGION_LENGTH__+0x7f0904>
     c0e:	81 11       	cpse	r24, r1
     c10:	14 c0       	rjmp	.+40     	; 0xc3a <TransmitByte+0x50>
     c12:	20 93 08 09 	sts	0x0908, r18	; 0x800908 <__TEXT_REGION_LENGTH__+0x7f0908>
     c16:	48 e8       	ldi	r20, 0x88	; 136
     c18:	53 e1       	ldi	r21, 0x13	; 19
     c1a:	60 e0       	ldi	r22, 0x00	; 0
     c1c:	70 e0       	ldi	r23, 0x00	; 0
     c1e:	09 c0       	rjmp	.+18     	; 0xc32 <TransmitByte+0x48>
     c20:	41 50       	subi	r20, 0x01	; 1
     c22:	51 09       	sbc	r21, r1
     c24:	61 09       	sbc	r22, r1
     c26:	71 09       	sbc	r23, r1
     c28:	21 f4       	brne	.+8      	; 0xc32 <TransmitByte+0x48>
     c2a:	83 e0       	ldi	r24, 0x03	; 3
     c2c:	80 93 04 09 	sts	0x0904, r24	; 0x800904 <__TEXT_REGION_LENGTH__+0x7f0904>
     c30:	04 c0       	rjmp	.+8      	; 0xc3a <TransmitByte+0x50>
     c32:	90 91 05 09 	lds	r25, 0x0905	; 0x800905 <__TEXT_REGION_LENGTH__+0x7f0905>
     c36:	96 ff       	sbrs	r25, 6
     c38:	f3 cf       	rjmp	.-26     	; 0xc20 <TransmitByte+0x36>
     c3a:	80 93 ca 65 	sts	0x65CA, r24	; 0x8065ca <I2C>
     c3e:	08 95       	ret

00000c40 <WriteToReg>:
 * @param reg Register address to write to.
 * @param data Data to write to the register.
 * 
 * This function writes the data to a specific register of an I2C device.
 */
void WriteToReg(uint8_t addr, uint8_t reg, uint8_t data) {
     c40:	cf 93       	push	r28
     c42:	df 93       	push	r29
     c44:	c6 2f       	mov	r28, r22
     c46:	d4 2f       	mov	r29, r20
    if (!TransmitAdd(addr, WRITE)) { // Transmit address for write
     c48:	60 e0       	ldi	r22, 0x00	; 0
     c4a:	0e 94 cb 05 	call	0xb96	; 0xb96 <TransmitAdd>
     c4e:	81 11       	cpse	r24, r1
     c50:	08 c0       	rjmp	.+16     	; 0xc62 <WriteToReg+0x22>
        if (!TransmitByte(reg)) { // Write register address
     c52:	8c 2f       	mov	r24, r28
     c54:	0e 94 f5 05 	call	0xbea	; 0xbea <TransmitByte>
     c58:	81 11       	cpse	r24, r1
     c5a:	03 c0       	rjmp	.+6      	; 0xc62 <WriteToReg+0x22>
            TransmitByte(data); // Write the data with STOP
     c5c:	8d 2f       	mov	r24, r29
     c5e:	0e 94 f5 05 	call	0xbea	; 0xbea <TransmitByte>
        }
    }

    TWI0.MCTRLB |= TWI_MCMD_STOP_gc; // Send STOP signal
     c62:	e0 e0       	ldi	r30, 0x00	; 0
     c64:	f9 e0       	ldi	r31, 0x09	; 9
     c66:	84 81       	ldd	r24, Z+4	; 0x04
     c68:	83 60       	ori	r24, 0x03	; 3
     c6a:	84 83       	std	Z+4, r24	; 0x04
}
     c6c:	df 91       	pop	r29
     c6e:	cf 91       	pop	r28
     c70:	08 95       	ret

00000c72 <ReadButton>:
 */ 
#include "Settings.h"
#include "JoystickVar.h"

uint8_t ReadButton(){
	return !(PORTA.IN & PIN1_bm);
     c72:	80 91 08 04 	lds	r24, 0x0408	; 0x800408 <__TEXT_REGION_LENGTH__+0x7f0408>
     c76:	86 95       	lsr	r24
     c78:	91 e0       	ldi	r25, 0x01	; 1
     c7a:	89 27       	eor	r24, r25
}
     c7c:	81 70       	andi	r24, 0x01	; 1
     c7e:	08 95       	ret

00000c80 <LatchSwitcher>:

void LatchSwitcher(){
	if (ReadButton()){
     c80:	0e 94 39 06 	call	0xc72	; 0xc72 <ReadButton>
     c84:	88 23       	and	r24, r24
     c86:	61 f0       	breq	.+24     	; 0xca0 <LatchSwitcher+0x20>
		if(!Joystick.LastState){
     c88:	80 91 d0 65 	lds	r24, 0x65D0	; 0x8065d0 <Joystick+0x5>
     c8c:	81 11       	cpse	r24, r1
     c8e:	0d c0       	rjmp	.+26     	; 0xcaa <LatchSwitcher+0x2a>
			Joystick.LatchSwitch ^= 1;
     c90:	eb ec       	ldi	r30, 0xCB	; 203
     c92:	f5 e6       	ldi	r31, 0x65	; 101
     c94:	86 81       	ldd	r24, Z+6	; 0x06
     c96:	91 e0       	ldi	r25, 0x01	; 1
     c98:	89 27       	eor	r24, r25
     c9a:	86 83       	std	Z+6, r24	; 0x06
			Joystick.LastState = true;
     c9c:	95 83       	std	Z+5, r25	; 0x05
     c9e:	08 95       	ret
		}
	}
	else{
		if(Joystick.LastState){
     ca0:	80 91 d0 65 	lds	r24, 0x65D0	; 0x8065d0 <Joystick+0x5>
     ca4:	81 11       	cpse	r24, r1
			Joystick.LastState = false;
     ca6:	10 92 d0 65 	sts	0x65D0, r1	; 0x8065d0 <Joystick+0x5>
     caa:	08 95       	ret

00000cac <ReadJoystickValues>:
		}
	}
}

void ReadJoystickValues(){
     cac:	0f 93       	push	r16
     cae:	1f 93       	push	r17
     cb0:	cf 93       	push	r28
     cb2:	df 93       	push	r29
	ADC0_SetupJoystick(Joystick_X_axis_CH);
     cb4:	8e e1       	ldi	r24, 0x1E	; 30
     cb6:	0e 94 ba 02 	call	0x574	; 0x574 <ADC0_SetupJoystick>
	Joystick.X_Axis = ((int16_t)ADC0_read()-2048)/Joystick_steps; // 5 steps total: -2,-1,0,1,2 (4096/1000 = 4,096)
     cba:	0e 94 e6 02 	call	0x5cc	; 0x5cc <ADC0_read>
     cbe:	98 50       	subi	r25, 0x08	; 8
     cc0:	04 ef       	ldi	r16, 0xF4	; 244
     cc2:	11 e0       	ldi	r17, 0x01	; 1
     cc4:	b8 01       	movw	r22, r16
     cc6:	0e 94 10 11 	call	0x2220	; 0x2220 <__divmodhi4>
     cca:	cb ec       	ldi	r28, 0xCB	; 203
     ccc:	d5 e6       	ldi	r29, 0x65	; 101
     cce:	68 83       	st	Y, r22
     cd0:	79 83       	std	Y+1, r23	; 0x01
	ADC0_SetupJoystick(Joystick_Y_axis_CH);
     cd2:	8d e1       	ldi	r24, 0x1D	; 29
     cd4:	0e 94 ba 02 	call	0x574	; 0x574 <ADC0_SetupJoystick>
	Joystick.Y_Axis = ((int16_t)ADC0_read()-2048)/Joystick_steps;
     cd8:	0e 94 e6 02 	call	0x5cc	; 0x5cc <ADC0_read>
     cdc:	98 50       	subi	r25, 0x08	; 8
     cde:	b8 01       	movw	r22, r16
     ce0:	0e 94 10 11 	call	0x2220	; 0x2220 <__divmodhi4>
     ce4:	6a 83       	std	Y+2, r22	; 0x02
     ce6:	7b 83       	std	Y+3, r23	; 0x03
	Joystick.Button = ReadButton();
     ce8:	0e 94 39 06 	call	0xc72	; 0xc72 <ReadButton>
     cec:	8c 83       	std	Y+4, r24	; 0x04
}
     cee:	df 91       	pop	r29
     cf0:	cf 91       	pop	r28
     cf2:	1f 91       	pop	r17
     cf4:	0f 91       	pop	r16
     cf6:	08 95       	ret

00000cf8 <SelectWindow>:


void SelectWindow(){
	if(Joystick.Y_Axis >= 1)
     cf8:	80 91 cd 65 	lds	r24, 0x65CD	; 0x8065cd <Joystick+0x2>
     cfc:	90 91 ce 65 	lds	r25, 0x65CE	; 0x8065ce <Joystick+0x3>
     d00:	18 16       	cp	r1, r24
     d02:	19 06       	cpc	r1, r25
     d04:	1c f4       	brge	.+6      	; 0xd0c <SelectWindow+0x14>
		show.window = 1;
     d06:	21 e0       	ldi	r18, 0x01	; 1
     d08:	20 93 f6 65 	sts	0x65F6, r18	; 0x8065f6 <show>
	if(Joystick.Y_Axis <= -1)
     d0c:	99 23       	and	r25, r25
     d0e:	14 f4       	brge	.+4      	; 0xd14 <SelectWindow+0x1c>
		show.window = 0;
     d10:	10 92 f6 65 	sts	0x65F6, r1	; 0x8065f6 <show>
     d14:	08 95       	ret

00000d16 <LinearMotor_enable>:
	PORTD.OUTSET = PIN2_bm; //set output disabled for TLE9201SG
};

bool Read_LinearMotor_EF(){ // false if driver has a error (overheat, linear motor stuck and so on)
	return PORTD.IN & PIN4_bm;
}
     d16:	80 91 d6 65 	lds	r24, 0x65D6	; 0x8065d6 <LinearMotor+0x3>
     d1a:	81 11       	cpse	r24, r1
     d1c:	0b c0       	rjmp	.+22     	; 0xd34 <LinearMotor_enable+0x1e>
     d1e:	84 e0       	ldi	r24, 0x04	; 4
     d20:	80 93 66 04 	sts	0x0466, r24	; 0x800466 <__TEXT_REGION_LENGTH__+0x7f0466>
     d24:	88 e2       	ldi	r24, 0x28	; 40
     d26:	8a 95       	dec	r24
     d28:	f1 f7       	brne	.-4      	; 0xd26 <LinearMotor_enable+0x10>
     d2a:	e3 ed       	ldi	r30, 0xD3	; 211
     d2c:	f5 e6       	ldi	r31, 0x65	; 101
     d2e:	81 e0       	ldi	r24, 0x01	; 1
     d30:	83 83       	std	Z+3, r24	; 0x03
     d32:	14 82       	std	Z+4, r1	; 0x04
     d34:	08 95       	ret

00000d36 <LinearMotor_disable>:
     d36:	80 91 d7 65 	lds	r24, 0x65D7	; 0x8065d7 <LinearMotor+0x4>
     d3a:	81 11       	cpse	r24, r1
     d3c:	0b c0       	rjmp	.+22     	; 0xd54 <LinearMotor_disable+0x1e>
     d3e:	84 e0       	ldi	r24, 0x04	; 4
     d40:	80 93 65 04 	sts	0x0465, r24	; 0x800465 <__TEXT_REGION_LENGTH__+0x7f0465>
     d44:	88 e2       	ldi	r24, 0x28	; 40
     d46:	8a 95       	dec	r24
     d48:	f1 f7       	brne	.-4      	; 0xd46 <LinearMotor_disable+0x10>
     d4a:	e3 ed       	ldi	r30, 0xD3	; 211
     d4c:	f5 e6       	ldi	r31, 0x65	; 101
     d4e:	81 e0       	ldi	r24, 0x01	; 1
     d50:	84 83       	std	Z+4, r24	; 0x04
     d52:	13 82       	std	Z+3, r1	; 0x03
     d54:	08 95       	ret

00000d56 <LinearMotor_start>:
     d56:	80 91 d4 65 	lds	r24, 0x65D4	; 0x8065d4 <LinearMotor+0x1>
     d5a:	81 11       	cpse	r24, r1
     d5c:	0d c0       	rjmp	.+26     	; 0xd78 <LinearMotor_start+0x22>
     d5e:	e0 e0       	ldi	r30, 0x00	; 0
     d60:	fa e0       	ldi	r31, 0x0A	; 10
     d62:	81 81       	ldd	r24, Z+1	; 0x01
     d64:	80 61       	ori	r24, 0x10	; 16
     d66:	81 83       	std	Z+1, r24	; 0x01
     d68:	80 81       	ld	r24, Z
     d6a:	81 60       	ori	r24, 0x01	; 1
     d6c:	80 83       	st	Z, r24
     d6e:	e3 ed       	ldi	r30, 0xD3	; 211
     d70:	f5 e6       	ldi	r31, 0x65	; 101
     d72:	81 e0       	ldi	r24, 0x01	; 1
     d74:	81 83       	std	Z+1, r24	; 0x01
     d76:	12 82       	std	Z+2, r1	; 0x02
     d78:	08 95       	ret

00000d7a <LinearMotor_stop>:
     d7a:	80 91 d5 65 	lds	r24, 0x65D5	; 0x8065d5 <LinearMotor+0x2>
     d7e:	81 11       	cpse	r24, r1
     d80:	19 c0       	rjmp	.+50     	; 0xdb4 <LinearMotor_stop+0x3a>
     d82:	e0 e0       	ldi	r30, 0x00	; 0
     d84:	fa e0       	ldi	r31, 0x0A	; 10
     d86:	81 81       	ldd	r24, Z+1	; 0x01
     d88:	8f 7e       	andi	r24, 0xEF	; 239
     d8a:	81 83       	std	Z+1, r24	; 0x01
     d8c:	80 81       	ld	r24, Z
     d8e:	8e 7f       	andi	r24, 0xFE	; 254
     d90:	80 83       	st	Z, r24
     d92:	88 e0       	ldi	r24, 0x08	; 8
     d94:	80 93 66 04 	sts	0x0466, r24	; 0x800466 <__TEXT_REGION_LENGTH__+0x7f0466>
     d98:	2f ef       	ldi	r18, 0xFF	; 255
     d9a:	8e e9       	ldi	r24, 0x9E	; 158
     d9c:	94 e2       	ldi	r25, 0x24	; 36
     d9e:	21 50       	subi	r18, 0x01	; 1
     da0:	80 40       	sbci	r24, 0x00	; 0
     da2:	90 40       	sbci	r25, 0x00	; 0
     da4:	e1 f7       	brne	.-8      	; 0xd9e <LinearMotor_stop+0x24>
     da6:	00 c0       	rjmp	.+0      	; 0xda8 <LinearMotor_stop+0x2e>
     da8:	00 00       	nop
     daa:	e3 ed       	ldi	r30, 0xD3	; 211
     dac:	f5 e6       	ldi	r31, 0x65	; 101
     dae:	81 e0       	ldi	r24, 0x01	; 1
     db0:	82 83       	std	Z+2, r24	; 0x02
     db2:	11 82       	std	Z+1, r1	; 0x01
     db4:	08 95       	ret

00000db6 <LinearMotor_set_direction>:
     db6:	cf 93       	push	r28
     db8:	90 91 d3 65 	lds	r25, 0x65D3	; 0x8065d3 <LinearMotor>
     dbc:	98 17       	cp	r25, r24
     dbe:	99 f0       	breq	.+38     	; 0xde6 <LinearMotor_set_direction+0x30>
     dc0:	c8 2f       	mov	r28, r24
     dc2:	0e 94 bd 06 	call	0xd7a	; 0xd7a <LinearMotor_stop>
     dc6:	cc 23       	and	r28, r28
     dc8:	21 f0       	breq	.+8      	; 0xdd2 <LinearMotor_set_direction+0x1c>
     dca:	80 e2       	ldi	r24, 0x20	; 32
     dcc:	80 93 65 04 	sts	0x0465, r24	; 0x800465 <__TEXT_REGION_LENGTH__+0x7f0465>
     dd0:	03 c0       	rjmp	.+6      	; 0xdd8 <LinearMotor_set_direction+0x22>
     dd2:	80 e2       	ldi	r24, 0x20	; 32
     dd4:	80 93 66 04 	sts	0x0466, r24	; 0x800466 <__TEXT_REGION_LENGTH__+0x7f0466>
     dd8:	88 e2       	ldi	r24, 0x28	; 40
     dda:	8a 95       	dec	r24
     ddc:	f1 f7       	brne	.-4      	; 0xdda <LinearMotor_set_direction+0x24>
     dde:	0e 94 ab 06 	call	0xd56	; 0xd56 <LinearMotor_start>
     de2:	c0 93 d3 65 	sts	0x65D3, r28	; 0x8065d3 <LinearMotor>
     de6:	cf 91       	pop	r28
     de8:	08 95       	ret

00000dea <LinearMotor_init>:
     dea:	62 e3       	ldi	r22, 0x32	; 50
     dec:	80 e2       	ldi	r24, 0x20	; 32
     dee:	9e e4       	ldi	r25, 0x4E	; 78
     df0:	0e 94 9e 0a 	call	0x153c	; 0x153c <TCA0_init_linear_PWM>
     df4:	84 e0       	ldi	r24, 0x04	; 4
     df6:	80 93 65 04 	sts	0x0465, r24	; 0x800465 <__TEXT_REGION_LENGTH__+0x7f0465>
     dfa:	08 95       	ret

00000dfc <Read_LinearMotor_Voltage>:

uint16_t Read_LinearMotor_Voltage(){
	ADC0_SetupLinearMotor(0);
     dfc:	80 e0       	ldi	r24, 0x00	; 0
     dfe:	0e 94 c0 02 	call	0x580	; 0x580 <ADC0_SetupLinearMotor>
	return (ADC0_read() * 0.075) * LinearMotor_Voltage_Compensation_koef; // same as ADC read/2000 * 30V (300k) / 2V(AMC1131 full range) )
     e02:	0e 94 e6 02 	call	0x5cc	; 0x5cc <ADC0_read>
     e06:	bc 01       	movw	r22, r24
     e08:	80 e0       	ldi	r24, 0x00	; 0
     e0a:	90 e0       	ldi	r25, 0x00	; 0
     e0c:	0e 94 15 10 	call	0x202a	; 0x202a <__floatunsisf>
     e10:	2a e9       	ldi	r18, 0x9A	; 154
     e12:	39 e9       	ldi	r19, 0x99	; 153
     e14:	49 e9       	ldi	r20, 0x99	; 153
     e16:	5d e3       	ldi	r21, 0x3D	; 61
     e18:	0e 94 a3 10 	call	0x2146	; 0x2146 <__mulsf3>
     e1c:	23 e8       	ldi	r18, 0x83	; 131
     e1e:	3d ed       	ldi	r19, 0xDD	; 221
     e20:	4c e7       	ldi	r20, 0x7C	; 124
     e22:	5f e3       	ldi	r21, 0x3F	; 63
     e24:	0e 94 a3 10 	call	0x2146	; 0x2146 <__mulsf3>
     e28:	0e 94 e6 0f 	call	0x1fcc	; 0x1fcc <__fixunssfsi>
}
     e2c:	cb 01       	movw	r24, r22
     e2e:	08 95       	ret

00000e30 <Read_LinearMotor_Current>:

int16_t Read_LinearMotor_Current(){
     e30:	cf 93       	push	r28
     e32:	df 93       	push	r29
	ADC0_SetupLinearMotor(1);
     e34:	81 e0       	ldi	r24, 0x01	; 1
     e36:	0e 94 c0 02 	call	0x580	; 0x580 <ADC0_SetupLinearMotor>
	return ((int16_t)ADC0_read() - (int16_t)Read_MCU_Voltge())/4;
     e3a:	0e 94 e6 02 	call	0x5cc	; 0x5cc <ADC0_read>
     e3e:	ec 01       	movw	r28, r24
     e40:	0e 94 fa 02 	call	0x5f4	; 0x5f4 <Read_MCU_Voltge>
     e44:	9e 01       	movw	r18, r28
     e46:	28 1b       	sub	r18, r24
     e48:	39 0b       	sbc	r19, r25
     e4a:	c9 01       	movw	r24, r18
     e4c:	99 23       	and	r25, r25
     e4e:	0c f4       	brge	.+2      	; 0xe52 <Read_LinearMotor_Current+0x22>
     e50:	03 96       	adiw	r24, 0x03	; 3
     e52:	95 95       	asr	r25
     e54:	87 95       	ror	r24
     e56:	95 95       	asr	r25
     e58:	87 95       	ror	r24
     e5a:	df 91       	pop	r29
     e5c:	cf 91       	pop	r28
     e5e:	08 95       	ret

00000e60 <main>:

#include "Settings.h"

int main(void)
{
    CLOCK_XOSCHF_clock_init();
     e60:	0e 94 0d 03 	call	0x61a	; 0x61a <CLOCK_XOSCHF_clock_init>
    GPIO_init();
     e64:	0e 94 8c 05 	call	0xb18	; 0xb18 <GPIO_init>
	LinearMotor_init();
     e68:	0e 94 f5 06 	call	0xdea	; 0xdea <LinearMotor_init>
	Stepper_init();
     e6c:	0e 94 64 0a 	call	0x14c8	; 0x14c8 <Stepper_init>
    I2C_init();
     e70:	0e 94 c1 05 	call	0xb82	; 0xb82 <I2C_init>
    ADC0_init();
     e74:	0e 94 b2 02 	call	0x564	; 0x564 <ADC0_init>
    USART0_init();
     e78:	0e 94 98 0b 	call	0x1730	; 0x1730 <USART0_init>
    USART1_init();
     e7c:	0e 94 df 0b 	call	0x17be	; 0x17be <USART1_init>
    screen_init();
     e80:	0e 94 f2 08 	call	0x11e4	; 0x11e4 <screen_init>
    screen_clear();
     e84:	0e 94 39 09 	call	0x1272	; 0x1272 <screen_clear>
	#else
		//round up by default
		__ticks_dc = (uint32_t)(ceil(fabs(__tmp)));
	#endif

	__builtin_avr_delay_cycles(__ticks_dc);
     e88:	2f ef       	ldi	r18, 0xFF	; 255
     e8a:	88 ef       	ldi	r24, 0xF8	; 248
     e8c:	95 e1       	ldi	r25, 0x15	; 21
     e8e:	21 50       	subi	r18, 0x01	; 1
     e90:	80 40       	sbci	r24, 0x00	; 0
     e92:	90 40       	sbci	r25, 0x00	; 0
     e94:	e1 f7       	brne	.-8      	; 0xe8e <main+0x2e>
     e96:	00 c0       	rjmp	.+0      	; 0xe98 <main+0x38>
     e98:	00 00       	nop
	_delay_ms(300); //Let to boot Top controller
	bool JustBoot = false;
     e9a:	c0 e0       	ldi	r28, 0x00	; 0
    while (1) 
    {
		
		RS485Receiver(); //RS485 communication
     e9c:	0e 94 92 08 	call	0x1124	; 0x1124 <RS485Receiver>
		FOReceiver(); // Received Fiber optic data
     ea0:	0e 94 2e 05 	call	0xa5c	; 0xa5c <FOReceiver>
		if(JustBoot)
     ea4:	c1 11       	cpse	r28, r1
			work();//Actions with motors
     ea6:	0e 94 80 02 	call	0x500	; 0x500 <work>
		windows();
     eaa:	0e 94 f2 0c 	call	0x19e4	; 0x19e4 <windows>
		JustBoot = true;
     eae:	c1 e0       	ldi	r28, 0x01	; 1
    }
     eb0:	f5 cf       	rjmp	.-22     	; 0xe9c <main+0x3c>

00000eb2 <RS485_Led>:
 */ 
#include "Settings.h"

void RS485_Led(RS485_LED_t LED){

    switch (LED) {
     eb2:	81 30       	cpi	r24, 0x01	; 1
     eb4:	51 f0       	breq	.+20     	; 0xeca <RS485_Led+0x18>
     eb6:	28 f0       	brcs	.+10     	; 0xec2 <RS485_Led+0x10>
     eb8:	82 30       	cpi	r24, 0x02	; 2
     eba:	59 f0       	breq	.+22     	; 0xed2 <RS485_Led+0x20>
     ebc:	83 30       	cpi	r24, 0x03	; 3
     ebe:	69 f0       	breq	.+26     	; 0xeda <RS485_Led+0x28>
     ec0:	08 95       	ret
	    case RX_LED_ON:
			PORTC.OUTSET = PIN0_bm;
     ec2:	81 e0       	ldi	r24, 0x01	; 1
     ec4:	80 93 45 04 	sts	0x0445, r24	; 0x800445 <__TEXT_REGION_LENGTH__+0x7f0445>
		break;
     ec8:	08 95       	ret
	    case RX_LED_OFF:
			PORTC.OUTCLR = PIN0_bm;
     eca:	81 e0       	ldi	r24, 0x01	; 1
     ecc:	80 93 46 04 	sts	0x0446, r24	; 0x800446 <__TEXT_REGION_LENGTH__+0x7f0446>
		break;
     ed0:	08 95       	ret
	    case TX_LED_ON:
			PORTA.OUTSET = PIN6_bm;
     ed2:	80 e4       	ldi	r24, 0x40	; 64
     ed4:	80 93 05 04 	sts	0x0405, r24	; 0x800405 <__TEXT_REGION_LENGTH__+0x7f0405>
		break;
     ed8:	08 95       	ret
	    case TX_LED_OFF:
			PORTA.OUTCLR = PIN6_bm;
     eda:	80 e4       	ldi	r24, 0x40	; 64
     edc:	80 93 06 04 	sts	0x0406, r24	; 0x800406 <__TEXT_REGION_LENGTH__+0x7f0406>
     ee0:	08 95       	ret

00000ee2 <RS485DataSplitter>:
 */ 
#include "Settings.h"
#include "RS485USARTVar.h"


void RS485DataSplitter(char *command) {
     ee2:	af 92       	push	r10
     ee4:	bf 92       	push	r11
     ee6:	cf 92       	push	r12
     ee8:	df 92       	push	r13
     eea:	ef 92       	push	r14
     eec:	ff 92       	push	r15
     eee:	0f 93       	push	r16
     ef0:	1f 93       	push	r17
     ef2:	cf 93       	push	r28
     ef4:	df 93       	push	r29
     ef6:	cd b7       	in	r28, 0x3d	; 61
     ef8:	de b7       	in	r29, 0x3e	; 62
     efa:	a6 97       	sbiw	r28, 0x26	; 38
     efc:	cd bf       	out	0x3d, r28	; 61
     efe:	de bf       	out	0x3e, r29	; 62
     f00:	7c 01       	movw	r14, r24
	const uint8_t lengths[] = {4, 4, 4, 2, 1, 3}; //tokens length without crc
     f02:	86 e0       	ldi	r24, 0x06	; 6
     f04:	e8 e9       	ldi	r30, 0x98	; 152
     f06:	f3 e6       	ldi	r31, 0x63	; 99
     f08:	de 01       	movw	r26, r28
     f0a:	11 96       	adiw	r26, 0x01	; 1
     f0c:	01 90       	ld	r0, Z+
     f0e:	0d 92       	st	X+, r0
     f10:	8a 95       	dec	r24
     f12:	e1 f7       	brne	.-8      	; 0xf0c <RS485DataSplitter+0x2a>
	char temp[MESSAGE_LENGTH_RS485-2]; //data storage

	strncpy(temp, command, MESSAGE_LENGTH_RS485-2); //copy data without crc
     f14:	42 e1       	ldi	r20, 0x12	; 18
     f16:	50 e0       	ldi	r21, 0x00	; 0
     f18:	b7 01       	movw	r22, r14
     f1a:	ce 01       	movw	r24, r28
     f1c:	07 96       	adiw	r24, 0x07	; 7
     f1e:	0e 94 1d 13 	call	0x263a	; 0x263a <strncpy>
	temp[MESSAGE_LENGTH_RS485-2] = '\0';
     f22:	19 8e       	std	Y+25, r1	; 0x19

	uint8_t datatocheck[(MESSAGE_LENGTH_RS485-2)/2]={0};
     f24:	fe 01       	movw	r30, r28
     f26:	79 96       	adiw	r30, 0x19	; 25
     f28:	89 e0       	ldi	r24, 0x09	; 9
     f2a:	df 01       	movw	r26, r30
     f2c:	1d 92       	st	X+, r1
     f2e:	8a 95       	dec	r24
     f30:	e9 f7       	brne	.-6      	; 0xf2c <RS485DataSplitter+0x4a>

	for (uint8_t i = 0; i < (MESSAGE_LENGTH_RS485-2)/2; i++) {
     f32:	d1 2c       	mov	r13, r1
     f34:	27 c0       	rjmp	.+78     	; 0xf84 <RS485DataSplitter+0xa2>
		char buf[3] = { temp[i * 2], temp[i * 2 + 1], '\0' }; // du simboliai + '\0'
     f36:	0d 2d       	mov	r16, r13
     f38:	10 e0       	ldi	r17, 0x00	; 0
     f3a:	c8 01       	movw	r24, r16
     f3c:	88 0f       	add	r24, r24
     f3e:	99 1f       	adc	r25, r25
     f40:	e7 e0       	ldi	r30, 0x07	; 7
     f42:	f0 e0       	ldi	r31, 0x00	; 0
     f44:	ec 0f       	add	r30, r28
     f46:	fd 1f       	adc	r31, r29
     f48:	e8 0f       	add	r30, r24
     f4a:	f9 1f       	adc	r31, r25
     f4c:	20 81       	ld	r18, Z
     f4e:	2a a3       	std	Y+34, r18	; 0x22
     f50:	01 96       	adiw	r24, 0x01	; 1
     f52:	e7 e0       	ldi	r30, 0x07	; 7
     f54:	f0 e0       	ldi	r31, 0x00	; 0
     f56:	ec 0f       	add	r30, r28
     f58:	fd 1f       	adc	r31, r29
     f5a:	e8 0f       	add	r30, r24
     f5c:	f9 1f       	adc	r31, r25
     f5e:	80 81       	ld	r24, Z
     f60:	8b a3       	std	Y+35, r24	; 0x23
     f62:	1c a2       	std	Y+36, r1	; 0x24
		datatocheck[i] = (uint8_t)strtol(buf, NULL, 16);
     f64:	40 e1       	ldi	r20, 0x10	; 16
     f66:	50 e0       	ldi	r21, 0x00	; 0
     f68:	60 e0       	ldi	r22, 0x00	; 0
     f6a:	70 e0       	ldi	r23, 0x00	; 0
     f6c:	ce 01       	movw	r24, r28
     f6e:	82 96       	adiw	r24, 0x22	; 34
     f70:	0e 94 d7 11 	call	0x23ae	; 0x23ae <strtol>
     f74:	e9 e1       	ldi	r30, 0x19	; 25
     f76:	f0 e0       	ldi	r31, 0x00	; 0
     f78:	ec 0f       	add	r30, r28
     f7a:	fd 1f       	adc	r31, r29
     f7c:	e0 0f       	add	r30, r16
     f7e:	f1 1f       	adc	r31, r17
     f80:	60 83       	st	Z, r22
	strncpy(temp, command, MESSAGE_LENGTH_RS485-2); //copy data without crc
	temp[MESSAGE_LENGTH_RS485-2] = '\0';

	uint8_t datatocheck[(MESSAGE_LENGTH_RS485-2)/2]={0};

	for (uint8_t i = 0; i < (MESSAGE_LENGTH_RS485-2)/2; i++) {
     f82:	d3 94       	inc	r13
     f84:	b8 e0       	ldi	r27, 0x08	; 8
     f86:	bd 15       	cp	r27, r13
     f88:	b0 f6       	brcc	.-84     	; 0xf36 <RS485DataSplitter+0x54>
		char buf[3] = { temp[i * 2], temp[i * 2 + 1], '\0' }; // du simboliai + '\0'
		datatocheck[i] = (uint8_t)strtol(buf, NULL, 16);
	}
	strncpy(temp, command + (MESSAGE_LENGTH_RS485-2), 2); //copy only crc
     f8a:	42 e0       	ldi	r20, 0x02	; 2
     f8c:	50 e0       	ldi	r21, 0x00	; 0
     f8e:	b7 01       	movw	r22, r14
     f90:	6e 5e       	subi	r22, 0xEE	; 238
     f92:	7f 4f       	sbci	r23, 0xFF	; 255
     f94:	ce 01       	movw	r24, r28
     f96:	07 96       	adiw	r24, 0x07	; 7
     f98:	0e 94 1d 13 	call	0x263a	; 0x263a <strncpy>
	temp[2] = '\0';
     f9c:	19 86       	std	Y+9, r1	; 0x09

	uint8_t crctocheck = (uint8_t)strtol(temp, NULL, 16); //convert char to int
     f9e:	40 e1       	ldi	r20, 0x10	; 16
     fa0:	50 e0       	ldi	r21, 0x00	; 0
     fa2:	60 e0       	ldi	r22, 0x00	; 0
     fa4:	70 e0       	ldi	r23, 0x00	; 0
     fa6:	ce 01       	movw	r24, r28
     fa8:	07 96       	adiw	r24, 0x07	; 7
     faa:	0e 94 d7 11 	call	0x23ae	; 0x23ae <strtol>

	if(verify_crc8_cdma2000_v2(datatocheck, crctocheck)){ //if data valid update it
     fae:	ce 01       	movw	r24, r28
     fb0:	49 96       	adiw	r24, 0x19	; 25
     fb2:	0e 94 b0 03 	call	0x760	; 0x760 <verify_crc8_cdma2000_v2>
     fb6:	81 11       	cpse	r24, r1
     fb8:	9b c0       	rjmp	.+310    	; 0x10f0 <RS485DataSplitter+0x20e>
     fba:	a3 c0       	rjmp	.+326    	; 0x1102 <RS485DataSplitter+0x220>
		//screen_write_formatted_text("data is correct", 1, ALIGN_CENTER);//uncomment if nedded// crc ok
		const char *p = command;

		for (uint8_t i = 0; i < 6; i++) {
			char token[5] = {0}; //longest token length + 1
     fbc:	5e 01       	movw	r10, r28
     fbe:	e2 e2       	ldi	r30, 0x22	; 34
     fc0:	ae 0e       	add	r10, r30
     fc2:	b1 1c       	adc	r11, r1
     fc4:	85 e0       	ldi	r24, 0x05	; 5
     fc6:	d5 01       	movw	r26, r10
     fc8:	1d 92       	st	X+, r1
     fca:	8a 95       	dec	r24
     fcc:	e9 f7       	brne	.-6      	; 0xfc8 <RS485DataSplitter+0xe6>

			memcpy(token, p, lengths[i]);
     fce:	e1 e0       	ldi	r30, 0x01	; 1
     fd0:	f0 e0       	ldi	r31, 0x00	; 0
     fd2:	ec 0f       	add	r30, r28
     fd4:	fd 1f       	adc	r31, r29
     fd6:	e1 0f       	add	r30, r17
     fd8:	f1 1d       	adc	r31, r1
     fda:	c0 80       	ld	r12, Z
     fdc:	d1 2c       	mov	r13, r1
     fde:	a6 01       	movw	r20, r12
     fe0:	b7 01       	movw	r22, r14
     fe2:	c5 01       	movw	r24, r10
     fe4:	0e 94 f6 12 	call	0x25ec	; 0x25ec <memcpy>
			token[lengths[i]] = '\0';
     fe8:	f5 01       	movw	r30, r10
     fea:	ec 0d       	add	r30, r12
     fec:	fd 1d       	adc	r31, r13
     fee:	10 82       	st	Z, r1

			switch (i) {
     ff0:	12 30       	cpi	r17, 0x02	; 2
     ff2:	09 f4       	brne	.+2      	; 0xff6 <RS485DataSplitter+0x114>
     ff4:	3f c0       	rjmp	.+126    	; 0x1074 <RS485DataSplitter+0x192>
     ff6:	28 f4       	brcc	.+10     	; 0x1002 <RS485DataSplitter+0x120>
     ff8:	11 23       	and	r17, r17
     ffa:	61 f0       	breq	.+24     	; 0x1014 <RS485DataSplitter+0x132>
     ffc:	11 30       	cpi	r17, 0x01	; 1
     ffe:	11 f1       	breq	.+68     	; 0x1044 <RS485DataSplitter+0x162>
    1000:	73 c0       	rjmp	.+230    	; 0x10e8 <RS485DataSplitter+0x206>
    1002:	14 30       	cpi	r17, 0x04	; 4
    1004:	09 f4       	brne	.+2      	; 0x1008 <RS485DataSplitter+0x126>
    1006:	59 c0       	rjmp	.+178    	; 0x10ba <RS485DataSplitter+0x1d8>
    1008:	08 f4       	brcc	.+2      	; 0x100c <RS485DataSplitter+0x12a>
    100a:	4c c0       	rjmp	.+152    	; 0x10a4 <RS485DataSplitter+0x1c2>
    100c:	15 30       	cpi	r17, 0x05	; 5
    100e:	09 f4       	brne	.+2      	; 0x1012 <RS485DataSplitter+0x130>
    1010:	5f c0       	rjmp	.+190    	; 0x10d0 <RS485DataSplitter+0x1ee>
    1012:	6a c0       	rjmp	.+212    	; 0x10e8 <RS485DataSplitter+0x206>
				case 0: WSData.azimuth   = (uint16_t)strtol(token, NULL, 16) / Angle_Precizion; break;
    1014:	40 e1       	ldi	r20, 0x10	; 16
    1016:	50 e0       	ldi	r21, 0x00	; 0
    1018:	60 e0       	ldi	r22, 0x00	; 0
    101a:	70 e0       	ldi	r23, 0x00	; 0
    101c:	ce 01       	movw	r24, r28
    101e:	82 96       	adiw	r24, 0x22	; 34
    1020:	0e 94 d7 11 	call	0x23ae	; 0x23ae <strtol>
    1024:	9b 01       	movw	r18, r22
    1026:	36 95       	lsr	r19
    1028:	27 95       	ror	r18
    102a:	36 95       	lsr	r19
    102c:	27 95       	ror	r18
    102e:	ab e7       	ldi	r26, 0x7B	; 123
    1030:	b4 e1       	ldi	r27, 0x14	; 20
    1032:	0e 94 65 11 	call	0x22ca	; 0x22ca <__umulhisi3>
    1036:	96 95       	lsr	r25
    1038:	87 95       	ror	r24
    103a:	80 93 de 65 	sts	0x65DE, r24	; 0x8065de <WSData>
    103e:	90 93 df 65 	sts	0x65DF, r25	; 0x8065df <WSData+0x1>
    1042:	52 c0       	rjmp	.+164    	; 0x10e8 <RS485DataSplitter+0x206>
				case 1: WSData.elevation     = (uint16_t)strtol(token, NULL, 16) / Angle_Precizion; break;
    1044:	40 e1       	ldi	r20, 0x10	; 16
    1046:	50 e0       	ldi	r21, 0x00	; 0
    1048:	60 e0       	ldi	r22, 0x00	; 0
    104a:	70 e0       	ldi	r23, 0x00	; 0
    104c:	ce 01       	movw	r24, r28
    104e:	82 96       	adiw	r24, 0x22	; 34
    1050:	0e 94 d7 11 	call	0x23ae	; 0x23ae <strtol>
    1054:	9b 01       	movw	r18, r22
    1056:	36 95       	lsr	r19
    1058:	27 95       	ror	r18
    105a:	36 95       	lsr	r19
    105c:	27 95       	ror	r18
    105e:	ab e7       	ldi	r26, 0x7B	; 123
    1060:	b4 e1       	ldi	r27, 0x14	; 20
    1062:	0e 94 65 11 	call	0x22ca	; 0x22ca <__umulhisi3>
    1066:	96 95       	lsr	r25
    1068:	87 95       	ror	r24
    106a:	80 93 e0 65 	sts	0x65E0, r24	; 0x8065e0 <WSData+0x2>
    106e:	90 93 e1 65 	sts	0x65E1, r25	; 0x8065e1 <WSData+0x3>
    1072:	3a c0       	rjmp	.+116    	; 0x10e8 <RS485DataSplitter+0x206>
				case 2: WSData.topelevation         = (uint16_t)strtol(token, NULL, 16) / Angle_Precizion; break;
    1074:	40 e1       	ldi	r20, 0x10	; 16
    1076:	50 e0       	ldi	r21, 0x00	; 0
    1078:	60 e0       	ldi	r22, 0x00	; 0
    107a:	70 e0       	ldi	r23, 0x00	; 0
    107c:	ce 01       	movw	r24, r28
    107e:	82 96       	adiw	r24, 0x22	; 34
    1080:	0e 94 d7 11 	call	0x23ae	; 0x23ae <strtol>
    1084:	9b 01       	movw	r18, r22
    1086:	36 95       	lsr	r19
    1088:	27 95       	ror	r18
    108a:	36 95       	lsr	r19
    108c:	27 95       	ror	r18
    108e:	ab e7       	ldi	r26, 0x7B	; 123
    1090:	b4 e1       	ldi	r27, 0x14	; 20
    1092:	0e 94 65 11 	call	0x22ca	; 0x22ca <__umulhisi3>
    1096:	96 95       	lsr	r25
    1098:	87 95       	ror	r24
    109a:	80 93 e2 65 	sts	0x65E2, r24	; 0x8065e2 <WSData+0x4>
    109e:	90 93 e3 65 	sts	0x65E3, r25	; 0x8065e3 <WSData+0x5>
    10a2:	22 c0       	rjmp	.+68     	; 0x10e8 <RS485DataSplitter+0x206>
				case 3: WSData.windspeed         = (uint8_t)strtol(token, NULL, 16); break;
    10a4:	40 e1       	ldi	r20, 0x10	; 16
    10a6:	50 e0       	ldi	r21, 0x00	; 0
    10a8:	60 e0       	ldi	r22, 0x00	; 0
    10aa:	70 e0       	ldi	r23, 0x00	; 0
    10ac:	ce 01       	movw	r24, r28
    10ae:	82 96       	adiw	r24, 0x22	; 34
    10b0:	0e 94 d7 11 	call	0x23ae	; 0x23ae <strtol>
    10b4:	60 93 e4 65 	sts	0x65E4, r22	; 0x8065e4 <WSData+0x6>
    10b8:	17 c0       	rjmp	.+46     	; 0x10e8 <RS485DataSplitter+0x206>
				case 4: WSData.winddirection       = (uint8_t)strtol(token, NULL, 16); break;
    10ba:	40 e1       	ldi	r20, 0x10	; 16
    10bc:	50 e0       	ldi	r21, 0x00	; 0
    10be:	60 e0       	ldi	r22, 0x00	; 0
    10c0:	70 e0       	ldi	r23, 0x00	; 0
    10c2:	ce 01       	movw	r24, r28
    10c4:	82 96       	adiw	r24, 0x22	; 34
    10c6:	0e 94 d7 11 	call	0x23ae	; 0x23ae <strtol>
    10ca:	60 93 e5 65 	sts	0x65E5, r22	; 0x8065e5 <WSData+0x7>
    10ce:	0c c0       	rjmp	.+24     	; 0x10e8 <RS485DataSplitter+0x206>
				case 5: WSData.lightlevel	= (uint16_t)strtol(token, NULL, 16); break;
    10d0:	40 e1       	ldi	r20, 0x10	; 16
    10d2:	50 e0       	ldi	r21, 0x00	; 0
    10d4:	60 e0       	ldi	r22, 0x00	; 0
    10d6:	70 e0       	ldi	r23, 0x00	; 0
    10d8:	ce 01       	movw	r24, r28
    10da:	82 96       	adiw	r24, 0x22	; 34
    10dc:	0e 94 d7 11 	call	0x23ae	; 0x23ae <strtol>
    10e0:	60 93 e6 65 	sts	0x65E6, r22	; 0x8065e6 <WSData+0x8>
    10e4:	70 93 e7 65 	sts	0x65E7, r23	; 0x8065e7 <WSData+0x9>
			}

			p += lengths[i];
    10e8:	ec 0c       	add	r14, r12
    10ea:	fd 1c       	adc	r15, r13

	if(verify_crc8_cdma2000_v2(datatocheck, crctocheck)){ //if data valid update it
		//screen_write_formatted_text("data is correct", 1, ALIGN_CENTER);//uncomment if nedded// crc ok
		const char *p = command;

		for (uint8_t i = 0; i < 6; i++) {
    10ec:	1f 5f       	subi	r17, 0xFF	; 255
    10ee:	01 c0       	rjmp	.+2      	; 0x10f2 <RS485DataSplitter+0x210>
    10f0:	10 e0       	ldi	r17, 0x00	; 0
    10f2:	16 30       	cpi	r17, 0x06	; 6
    10f4:	08 f4       	brcc	.+2      	; 0x10f8 <RS485DataSplitter+0x216>
    10f6:	62 cf       	rjmp	.-316    	; 0xfbc <RS485DataSplitter+0xda>
				case 5: WSData.lightlevel	= (uint16_t)strtol(token, NULL, 16); break;
			}

			p += lengths[i];
		}
		WSData.WS_data_fault = false; //reset error
    10f8:	ee ed       	ldi	r30, 0xDE	; 222
    10fa:	f5 e6       	ldi	r31, 0x65	; 101
    10fc:	14 86       	std	Z+12, r1	; 0x0c
		WSData.WS_lost_signal_fault = false; //reset error
    10fe:	13 86       	std	Z+11, r1	; 0x0b
    1100:	03 c0       	rjmp	.+6      	; 0x1108 <RS485DataSplitter+0x226>

	}
	else{
		//uncomment if nedded
		//screen_write_formatted_text("data is corupted!", 1, ALIGN_CENTER); // bad crc
		WSData.WS_data_fault = true;
    1102:	81 e0       	ldi	r24, 0x01	; 1
    1104:	80 93 ea 65 	sts	0x65EA, r24	; 0x8065ea <WSData+0xc>
	}

}
    1108:	a6 96       	adiw	r28, 0x26	; 38
    110a:	cd bf       	out	0x3d, r28	; 61
    110c:	de bf       	out	0x3e, r29	; 62
    110e:	df 91       	pop	r29
    1110:	cf 91       	pop	r28
    1112:	1f 91       	pop	r17
    1114:	0f 91       	pop	r16
    1116:	ff 90       	pop	r15
    1118:	ef 90       	pop	r14
    111a:	df 90       	pop	r13
    111c:	cf 90       	pop	r12
    111e:	bf 90       	pop	r11
    1120:	af 90       	pop	r10
    1122:	08 95       	ret

00001124 <RS485Receiver>:

void RS485Receiver() {
    1124:	ff 92       	push	r15
    1126:	0f 93       	push	r16
    1128:	1f 93       	push	r17
    112a:	cf 93       	push	r28
    112c:	df 93       	push	r29
    112e:	cd b7       	in	r28, 0x3d	; 61
    1130:	de b7       	in	r29, 0x3e	; 62
    1132:	64 97       	sbiw	r28, 0x14	; 20
    1134:	cd bf       	out	0x3d, r28	; 61
    1136:	de bf       	out	0x3e, r29	; 62
	uint8_t index = 0;
	char command[MESSAGE_LENGTH_RS485] = {0}; // Empty command array
    1138:	fe 01       	movw	r30, r28
    113a:	31 96       	adiw	r30, 0x01	; 1
    113c:	84 e1       	ldi	r24, 0x14	; 20
    113e:	df 01       	movw	r26, r30
    1140:	1d 92       	st	X+, r1
    1142:	8a 95       	dec	r24
    1144:	e9 f7       	brne	.-6      	; 0x1140 <RS485Receiver+0x1c>
	uint8_t start = 0;
	uint8_t timeout = 0;
	WSData.WS_lost_connecton_fault = false;
    1146:	ee ed       	ldi	r30, 0xDE	; 222
    1148:	f5 e6       	ldi	r31, 0x65	; 101
    114a:	12 86       	std	Z+10, r1	; 0x0a
	WSData.WS_lost_signal_fault = false;
    114c:	13 86       	std	Z+11, r1	; 0x0b

void RS485Receiver() {
	uint8_t index = 0;
	char command[MESSAGE_LENGTH_RS485] = {0}; // Empty command array
	uint8_t start = 0;
	uint8_t timeout = 0;
    114e:	10 e0       	ldi	r17, 0x00	; 0
}

void RS485Receiver() {
	uint8_t index = 0;
	char command[MESSAGE_LENGTH_RS485] = {0}; // Empty command array
	uint8_t start = 0;
    1150:	f1 2c       	mov	r15, r1
	}

}

void RS485Receiver() {
	uint8_t index = 0;
    1152:	00 e0       	ldi	r16, 0x00	; 0
	uint8_t timeout = 0;
	WSData.WS_lost_connecton_fault = false;
	WSData.WS_lost_signal_fault = false;

	while (1) {
		char c = USART0_readChar(); // Reading a character from USART	
    1154:	0e 94 a5 0b 	call	0x174a	; 0x174a <USART0_readChar>

		if(WSData.WS_lost_signal_fault){
    1158:	90 91 e9 65 	lds	r25, 0x65E9	; 0x8065e9 <WSData+0xb>
    115c:	99 23       	and	r25, r25
    115e:	39 f0       	breq	.+14     	; 0x116e <RS485Receiver+0x4a>
			if (++timeout == CountForError_RS485) { // Timeout condition if usart1 reading is halted
    1160:	1f 5f       	subi	r17, 0xFF	; 255
    1162:	13 30       	cpi	r17, 0x03	; 3
    1164:	21 f4       	brne	.+8      	; 0x116e <RS485Receiver+0x4a>
				WSData.WS_lost_connecton_fault = true;
    1166:	81 e0       	ldi	r24, 0x01	; 1
    1168:	80 93 e8 65 	sts	0x65E8, r24	; 0x8065e8 <WSData+0xa>
				break;
    116c:	26 c0       	rjmp	.+76     	; 0x11ba <RS485Receiver+0x96>
			}
		}		
		if (start) {
    116e:	ff 20       	and	r15, r15
    1170:	d9 f0       	breq	.+54     	; 0x11a8 <RS485Receiver+0x84>
			if (c == '}') { // If received data end symbol
    1172:	8d 37       	cpi	r24, 0x7D	; 125
    1174:	79 f4       	brne	.+30     	; 0x1194 <RS485Receiver+0x70>
				RS485_Led(RX_LED_OFF);
    1176:	81 e0       	ldi	r24, 0x01	; 1
    1178:	0e 94 59 07 	call	0xeb2	; 0xeb2 <RS485_Led>
				start = 0;
				command[index] = '\0';
    117c:	e1 e0       	ldi	r30, 0x01	; 1
    117e:	f0 e0       	ldi	r31, 0x00	; 0
    1180:	ec 0f       	add	r30, r28
    1182:	fd 1f       	adc	r31, r29
    1184:	e0 0f       	add	r30, r16
    1186:	f1 1d       	adc	r31, r1
    1188:	10 82       	st	Z, r1
				index = 0;
				RS485DataSplitter(command); // Execute the received command //comment when testing lines below
    118a:	ce 01       	movw	r24, r28
    118c:	01 96       	adiw	r24, 0x01	; 1
    118e:	0e 94 71 07 	call	0xee2	; 0xee2 <RS485DataSplitter>
				break;
    1192:	13 c0       	rjmp	.+38     	; 0x11ba <RS485Receiver+0x96>
				} else if (index < MESSAGE_LENGTH_RS485) {
    1194:	04 31       	cpi	r16, 0x14	; 20
    1196:	40 f4       	brcc	.+16     	; 0x11a8 <RS485Receiver+0x84>
				command[index++] = c; // Store received character in command array
    1198:	e1 e0       	ldi	r30, 0x01	; 1
    119a:	f0 e0       	ldi	r31, 0x00	; 0
    119c:	ec 0f       	add	r30, r28
    119e:	fd 1f       	adc	r31, r29
    11a0:	e0 0f       	add	r30, r16
    11a2:	f1 1d       	adc	r31, r1
    11a4:	80 83       	st	Z, r24
    11a6:	0f 5f       	subi	r16, 0xFF	; 255
			}
		}
		if (c == '{') { // If received data start symbol
    11a8:	8b 37       	cpi	r24, 0x7B	; 123
    11aa:	a1 f6       	brne	.-88     	; 0x1154 <RS485Receiver+0x30>
			start = 1;
			index = 0;
			RS485_Led(RX_LED_ON);
    11ac:	80 e0       	ldi	r24, 0x00	; 0
    11ae:	0e 94 59 07 	call	0xeb2	; 0xeb2 <RS485_Led>
				} else if (index < MESSAGE_LENGTH_RS485) {
				command[index++] = c; // Store received character in command array
			}
		}
		if (c == '{') { // If received data start symbol
			start = 1;
    11b2:	ff 24       	eor	r15, r15
    11b4:	f3 94       	inc	r15
			index = 0;
    11b6:	00 e0       	ldi	r16, 0x00	; 0
    11b8:	cd cf       	rjmp	.-102    	; 0x1154 <RS485Receiver+0x30>
			RS485_Led(RX_LED_ON);
		}
	}
    11ba:	64 96       	adiw	r28, 0x14	; 20
    11bc:	cd bf       	out	0x3d, r28	; 61
    11be:	de bf       	out	0x3e, r29	; 62
    11c0:	df 91       	pop	r29
    11c2:	cf 91       	pop	r28
    11c4:	1f 91       	pop	r17
    11c6:	0f 91       	pop	r16
    11c8:	ff 90       	pop	r15
    11ca:	08 95       	ret

000011cc <screen_command>:
    if (contrast > 0x3f) {
        contrast = 0x3f;  ///< Ensure contrast does not exceed maximum
    }
    screen_command(0x81);  ///< Send command to set contrast
    screen_command(contrast);  ///< Set the contrast value
}
    11cc:	48 2f       	mov	r20, r24
    11ce:	60 e0       	ldi	r22, 0x00	; 0
    11d0:	8c e3       	ldi	r24, 0x3C	; 60
    11d2:	0e 94 20 06 	call	0xc40	; 0xc40 <WriteToReg>
    11d6:	08 95       	ret

000011d8 <screen_data>:
    11d8:	48 2f       	mov	r20, r24
    11da:	60 e4       	ldi	r22, 0x40	; 64
    11dc:	8c e3       	ldi	r24, 0x3C	; 60
    11de:	0e 94 20 06 	call	0xc40	; 0xc40 <WriteToReg>
    11e2:	08 95       	ret

000011e4 <screen_init>:
    11e4:	cf 93       	push	r28
    11e6:	60 e0       	ldi	r22, 0x00	; 0
    11e8:	8c e3       	ldi	r24, 0x3C	; 60
    11ea:	0e 94 cb 05 	call	0xb96	; 0xb96 <TransmitAdd>
    11ee:	c0 e0       	ldi	r28, 0x00	; 0
    11f0:	08 c0       	rjmp	.+16     	; 0x1202 <screen_init+0x1e>
    11f2:	ec 2f       	mov	r30, r28
    11f4:	f0 e0       	ldi	r31, 0x00	; 0
    11f6:	e7 58       	subi	r30, 0x87	; 135
    11f8:	fc 49       	sbci	r31, 0x9C	; 156
    11fa:	80 81       	ld	r24, Z
    11fc:	0e 94 f5 05 	call	0xbea	; 0xbea <TransmitByte>
    1200:	cf 5f       	subi	r28, 0xFF	; 255
    1202:	ca 31       	cpi	r28, 0x1A	; 26
    1204:	b0 f3       	brcs	.-20     	; 0x11f2 <screen_init+0xe>
    1206:	cf 91       	pop	r28
    1208:	08 95       	ret

0000120a <screen_draw_char>:
    120a:	1f 93       	push	r17
    120c:	cf 93       	push	r28
    120e:	df 93       	push	r29
    1210:	d8 2f       	mov	r29, r24
    1212:	80 ee       	ldi	r24, 0xE0	; 224
    1214:	8d 0f       	add	r24, r29
    1216:	80 36       	cpi	r24, 0x60	; 96
    1218:	28 f0       	brcs	.+10     	; 0x1224 <screen_draw_char+0x1a>
    121a:	d0 3b       	cpi	r29, 0xB0	; 176
    121c:	19 f0       	breq	.+6      	; 0x1224 <screen_draw_char+0x1a>
    121e:	d0 3c       	cpi	r29, 0xC0	; 192
    1220:	08 f4       	brcc	.+2      	; 0x1224 <screen_draw_char+0x1a>
    1222:	d0 e2       	ldi	r29, 0x20	; 32
    1224:	d0 3b       	cpi	r29, 0xB0	; 176
    1226:	21 f0       	breq	.+8      	; 0x1230 <screen_draw_char+0x26>
    1228:	d0 3c       	cpi	r29, 0xC0	; 192
    122a:	20 f4       	brcc	.+8      	; 0x1234 <screen_draw_char+0x2a>
    122c:	10 e2       	ldi	r17, 0x20	; 32
    122e:	03 c0       	rjmp	.+6      	; 0x1236 <screen_draw_char+0x2c>
    1230:	10 e5       	ldi	r17, 0x50	; 80
    1232:	01 c0       	rjmp	.+2      	; 0x1236 <screen_draw_char+0x2c>
    1234:	1f e5       	ldi	r17, 0x5F	; 95
    1236:	c0 e0       	ldi	r28, 0x00	; 0
    1238:	13 c0       	rjmp	.+38     	; 0x1260 <screen_draw_char+0x56>
    123a:	8d 2f       	mov	r24, r29
    123c:	90 e0       	ldi	r25, 0x00	; 0
    123e:	81 1b       	sub	r24, r17
    1240:	91 09       	sbc	r25, r1
    1242:	fc 01       	movw	r30, r24
    1244:	ee 0f       	add	r30, r30
    1246:	ff 1f       	adc	r31, r31
    1248:	ee 0f       	add	r30, r30
    124a:	ff 1f       	adc	r31, r31
    124c:	e8 0f       	add	r30, r24
    124e:	f9 1f       	adc	r31, r25
    1250:	ec 5a       	subi	r30, 0xAC	; 172
    1252:	ff 49       	sbci	r31, 0x9F	; 159
    1254:	ec 0f       	add	r30, r28
    1256:	f1 1d       	adc	r31, r1
    1258:	80 81       	ld	r24, Z
    125a:	0e 94 ec 08 	call	0x11d8	; 0x11d8 <screen_data>
    125e:	cf 5f       	subi	r28, 0xFF	; 255
    1260:	c5 30       	cpi	r28, 0x05	; 5
    1262:	58 f3       	brcs	.-42     	; 0x123a <screen_draw_char+0x30>
    1264:	80 e0       	ldi	r24, 0x00	; 0
    1266:	0e 94 ec 08 	call	0x11d8	; 0x11d8 <screen_data>
    126a:	df 91       	pop	r29
    126c:	cf 91       	pop	r28
    126e:	1f 91       	pop	r17
    1270:	08 95       	ret

00001272 <screen_clear>:
 * @brief Clears the ST7567S display.
 * 
 * This function clears the entire display by setting all pixels to 0 and restoring 
 * the default contrast.
 */
void screen_clear() {
    1272:	0f 93       	push	r16
    1274:	1f 93       	push	r17
    1276:	cf 93       	push	r28
    1278:	df 93       	push	r29
    for (int page = 0; page < 8; page++) {
    127a:	00 e0       	ldi	r16, 0x00	; 0
    127c:	10 e0       	ldi	r17, 0x00	; 0
    127e:	16 c0       	rjmp	.+44     	; 0x12ac <screen_clear+0x3a>
        screen_command(0xB0 + page);  ///< Select page
    1280:	80 eb       	ldi	r24, 0xB0	; 176
    1282:	80 0f       	add	r24, r16
    1284:	0e 94 e6 08 	call	0x11cc	; 0x11cc <screen_command>
        screen_command(0x00);  ///< Set column address
    1288:	80 e0       	ldi	r24, 0x00	; 0
    128a:	0e 94 e6 08 	call	0x11cc	; 0x11cc <screen_command>
        screen_command(0x10);  ///< Set column address
    128e:	80 e1       	ldi	r24, 0x10	; 16
    1290:	0e 94 e6 08 	call	0x11cc	; 0x11cc <screen_command>

        for (int column = 0; column < 128; column++) {
    1294:	c0 e0       	ldi	r28, 0x00	; 0
    1296:	d0 e0       	ldi	r29, 0x00	; 0
    1298:	04 c0       	rjmp	.+8      	; 0x12a2 <screen_clear+0x30>
            screen_data(0x00);  ///< Clear each column
    129a:	80 e0       	ldi	r24, 0x00	; 0
    129c:	0e 94 ec 08 	call	0x11d8	; 0x11d8 <screen_data>
    for (int page = 0; page < 8; page++) {
        screen_command(0xB0 + page);  ///< Select page
        screen_command(0x00);  ///< Set column address
        screen_command(0x10);  ///< Set column address

        for (int column = 0; column < 128; column++) {
    12a0:	21 96       	adiw	r28, 0x01	; 1
    12a2:	c0 38       	cpi	r28, 0x80	; 128
    12a4:	d1 05       	cpc	r29, r1
    12a6:	cc f3       	brlt	.-14     	; 0x129a <screen_clear+0x28>
 * 
 * This function clears the entire display by setting all pixels to 0 and restoring 
 * the default contrast.
 */
void screen_clear() {
    for (int page = 0; page < 8; page++) {
    12a8:	0f 5f       	subi	r16, 0xFF	; 255
    12aa:	1f 4f       	sbci	r17, 0xFF	; 255
    12ac:	08 30       	cpi	r16, 0x08	; 8
    12ae:	11 05       	cpc	r17, r1
    12b0:	3c f3       	brlt	.-50     	; 0x1280 <screen_clear+0xe>
        for (int column = 0; column < 128; column++) {
            screen_data(0x00);  ///< Clear each column
        }
    }
    //screen_contrast(SSD1306_CONTRAST);  ///< Restore contrast
}
    12b2:	df 91       	pop	r29
    12b4:	cf 91       	pop	r28
    12b6:	1f 91       	pop	r17
    12b8:	0f 91       	pop	r16
    12ba:	08 95       	ret

000012bc <screen_draw_text>:
 * the maximum allowed characters are displayed.
 * 
 * @param text A pointer to the text string to draw.
 * @param max_length The maximum number of characters to display.
 */
void screen_draw_text(char *text, uint8_t max_length) {
    12bc:	0f 93       	push	r16
    12be:	1f 93       	push	r17
    12c0:	cf 93       	push	r28
    12c2:	df 93       	push	r29
    12c4:	8c 01       	movw	r16, r24
    12c6:	d6 2f       	mov	r29, r22
    uint8_t length = 0;
    12c8:	c0 e0       	ldi	r28, 0x00	; 0
    while (*text && length < max_length) {
    12ca:	05 c0       	rjmp	.+10     	; 0x12d6 <screen_draw_text+0x1a>
        screen_draw_char(*text);  ///< Draw each character in the string
    12cc:	0e 94 05 09 	call	0x120a	; 0x120a <screen_draw_char>
        text++;
    12d0:	0f 5f       	subi	r16, 0xFF	; 255
    12d2:	1f 4f       	sbci	r17, 0xFF	; 255
        length++;
    12d4:	cf 5f       	subi	r28, 0xFF	; 255
 * @param text A pointer to the text string to draw.
 * @param max_length The maximum number of characters to display.
 */
void screen_draw_text(char *text, uint8_t max_length) {
    uint8_t length = 0;
    while (*text && length < max_length) {
    12d6:	f8 01       	movw	r30, r16
    12d8:	80 81       	ld	r24, Z
    12da:	88 23       	and	r24, r24
    12dc:	39 f0       	breq	.+14     	; 0x12ec <screen_draw_text+0x30>
    12de:	cd 17       	cp	r28, r29
    12e0:	a8 f3       	brcs	.-22     	; 0x12cc <screen_draw_text+0x10>
    12e2:	04 c0       	rjmp	.+8      	; 0x12ec <screen_draw_text+0x30>
        screen_draw_char(*text);  ///< Draw each character in the string
        text++;
        length++;
    }
    while (length < max_length) {
        screen_draw_char(' ');  ///< Fill remaining space with spaces
    12e4:	80 e2       	ldi	r24, 0x20	; 32
    12e6:	0e 94 05 09 	call	0x120a	; 0x120a <screen_draw_char>
        length++;
    12ea:	cf 5f       	subi	r28, 0xFF	; 255
    while (*text && length < max_length) {
        screen_draw_char(*text);  ///< Draw each character in the string
        text++;
        length++;
    }
    while (length < max_length) {
    12ec:	cd 17       	cp	r28, r29
    12ee:	d0 f3       	brcs	.-12     	; 0x12e4 <screen_draw_text+0x28>
        screen_draw_char(' ');  ///< Fill remaining space with spaces
        length++;
    }
}
    12f0:	df 91       	pop	r29
    12f2:	cf 91       	pop	r28
    12f4:	1f 91       	pop	r17
    12f6:	0f 91       	pop	r16
    12f8:	08 95       	ret

000012fa <screen_write_text>:
 * 
 * @param text A pointer to the text string to write.
 * @param line The line (page) where the text will be written.
 * @param start_pixel The starting pixel column for the text.
 */
void screen_write_text(char *text, uint8_t line, uint8_t start_pixel) {
    12fa:	0f 93       	push	r16
    12fc:	1f 93       	push	r17
    12fe:	cf 93       	push	r28
    1300:	df 93       	push	r29
    1302:	8c 01       	movw	r16, r24
    1304:	26 2f       	mov	r18, r22
    1306:	c4 2f       	mov	r28, r20
    uint8_t max_chars = (128 - start_pixel) / 6;  ///< Calculate max characters per line
    1308:	80 e8       	ldi	r24, 0x80	; 128
    130a:	90 e0       	ldi	r25, 0x00	; 0
    130c:	84 1b       	sub	r24, r20
    130e:	91 09       	sbc	r25, r1
    1310:	66 e0       	ldi	r22, 0x06	; 6
    1312:	70 e0       	ldi	r23, 0x00	; 0
    1314:	0e 94 10 11 	call	0x2220	; 0x2220 <__divmodhi4>
    1318:	d6 2f       	mov	r29, r22
    screen_command(0xB0 | line);  ///< Set the page (line)
    131a:	82 2f       	mov	r24, r18
    131c:	80 6b       	ori	r24, 0xB0	; 176
    131e:	0e 94 e6 08 	call	0x11cc	; 0x11cc <screen_command>
    screen_command(0x10 | (start_pixel >> 4));  ///< Set high byte of column address
    1322:	8c 2f       	mov	r24, r28
    1324:	82 95       	swap	r24
    1326:	8f 70       	andi	r24, 0x0F	; 15
    1328:	80 61       	ori	r24, 0x10	; 16
    132a:	0e 94 e6 08 	call	0x11cc	; 0x11cc <screen_command>
    screen_command(0x00 | (start_pixel & 0x0F));  ///< Set low byte of column address
    132e:	8c 2f       	mov	r24, r28
    1330:	8f 70       	andi	r24, 0x0F	; 15
    1332:	0e 94 e6 08 	call	0x11cc	; 0x11cc <screen_command>
    screen_draw_text(text, max_chars);  ///< Draw the text
    1336:	6d 2f       	mov	r22, r29
    1338:	c8 01       	movw	r24, r16
    133a:	0e 94 5e 09 	call	0x12bc	; 0x12bc <screen_draw_text>
}
    133e:	df 91       	pop	r29
    1340:	cf 91       	pop	r28
    1342:	1f 91       	pop	r17
    1344:	0f 91       	pop	r16
    1346:	08 95       	ret

00001348 <calculate_start_pixel>:
 * @param max_length The maximum number of characters.
 * @param alignment The desired text alignment (left, center, right).
 * 
 * @return The starting pixel for the text.
 */
uint8_t calculate_start_pixel(char *text, /*uint8_t max_length,*/ alignment_t alignment) {
    1348:	ac 01       	movw	r20, r24
    uint8_t text_length = 0;
    134a:	90 e0       	ldi	r25, 0x00	; 0
    while (text[text_length] != '\0' /*&& text_length < max_length*/) {
    134c:	01 c0       	rjmp	.+2      	; 0x1350 <calculate_start_pixel+0x8>
        text_length++;
    134e:	9f 5f       	subi	r25, 0xFF	; 255
 * 
 * @return The starting pixel for the text.
 */
uint8_t calculate_start_pixel(char *text, /*uint8_t max_length,*/ alignment_t alignment) {
    uint8_t text_length = 0;
    while (text[text_length] != '\0' /*&& text_length < max_length*/) {
    1350:	fa 01       	movw	r30, r20
    1352:	e9 0f       	add	r30, r25
    1354:	f1 1d       	adc	r31, r1
    1356:	20 81       	ld	r18, Z
    1358:	21 11       	cpse	r18, r1
    135a:	f9 cf       	rjmp	.-14     	; 0x134e <calculate_start_pixel+0x6>
        text_length++;
    }

    uint8_t text_width = text_length * 6;  ///< Calculate the width of the text in pixels
    135c:	89 2f       	mov	r24, r25
    135e:	88 0f       	add	r24, r24
    1360:	98 0f       	add	r25, r24
    1362:	29 2f       	mov	r18, r25
    1364:	22 0f       	add	r18, r18
    switch (alignment) {
    1366:	61 30       	cpi	r22, 0x01	; 1
    1368:	19 f0       	breq	.+6      	; 0x1370 <calculate_start_pixel+0x28>
    136a:	62 30       	cpi	r22, 0x02	; 2
    136c:	69 f0       	breq	.+26     	; 0x1388 <calculate_start_pixel+0x40>
    136e:	0f c0       	rjmp	.+30     	; 0x138e <calculate_start_pixel+0x46>
        case ALIGN_CENTER:
            return (128 - text_width) / 2;  ///< Center the text
    1370:	80 e8       	ldi	r24, 0x80	; 128
    1372:	90 e0       	ldi	r25, 0x00	; 0
    1374:	ac 01       	movw	r20, r24
    1376:	42 1b       	sub	r20, r18
    1378:	51 09       	sbc	r21, r1
    137a:	ca 01       	movw	r24, r20
    137c:	99 23       	and	r25, r25
    137e:	0c f4       	brge	.+2      	; 0x1382 <calculate_start_pixel+0x3a>
    1380:	01 96       	adiw	r24, 0x01	; 1
    1382:	95 95       	asr	r25
    1384:	87 95       	ror	r24
    1386:	08 95       	ret
        case ALIGN_RIGHT:
            return (128 - text_width);  ///< Right-align the text
    1388:	80 e8       	ldi	r24, 0x80	; 128
    138a:	82 1b       	sub	r24, r18
    138c:	08 95       	ret
        case ALIGN_LEFT:
        default:
            return 0;  ///< Left-align the text
    138e:	80 e0       	ldi	r24, 0x00	; 0
    }
}
    1390:	08 95       	ret

00001392 <screen_write_text_aligned>:
 * 
 * @param text A pointer to the text string to write.
 * @param line The line (page) where the text will be written.
 * @param alignment The desired text alignment (left, center, right).
 */
void screen_write_text_aligned(char *text, uint8_t line, alignment_t alignment) {
    1392:	1f 93       	push	r17
    1394:	cf 93       	push	r28
    1396:	df 93       	push	r29
    1398:	ec 01       	movw	r28, r24
    139a:	16 2f       	mov	r17, r22
    uint8_t start_pixel = calculate_start_pixel(text, alignment);  ///< Calculate start pixel
    139c:	64 2f       	mov	r22, r20
    139e:	0e 94 a4 09 	call	0x1348	; 0x1348 <calculate_start_pixel>
   screen_write_text(text, line, start_pixel);
    13a2:	48 2f       	mov	r20, r24
    13a4:	61 2f       	mov	r22, r17
    13a6:	ce 01       	movw	r24, r28
    13a8:	0e 94 7d 09 	call	0x12fa	; 0x12fa <screen_write_text>
}
    13ac:	df 91       	pop	r29
    13ae:	cf 91       	pop	r28
    13b0:	1f 91       	pop	r17
    13b2:	08 95       	ret

000013b4 <screen_write_formatted_text>:
 * 
 * @param format The format string for the text.
 * @param line The line (page) where the text will be written.
 * @param alignment The desired text alignment (left, center, right).
 */
void screen_write_formatted_text(const char *format, uint8_t line, alignment_t alignment, ...) {
    13b4:	cf 93       	push	r28
    13b6:	df 93       	push	r29
    13b8:	cd b7       	in	r28, 0x3d	; 61
    13ba:	de b7       	in	r29, 0x3e	; 62
    13bc:	e2 97       	sbiw	r28, 0x32	; 50
    13be:	cd bf       	out	0x3d, r28	; 61
    13c0:	de bf       	out	0x3e, r29	; 62
    char textStorage[MAX_TEXT_LENGTH];  ///< Buffer for storing formatted text
    va_list args;  ///< Variable argument list

    va_start(args, alignment);  ///< Start reading variable arguments
    vsnprintf(textStorage, MAX_TEXT_LENGTH, format, args);  ///< Format the text
    13c2:	9e 01       	movw	r18, r28
    13c4:	25 5c       	subi	r18, 0xC5	; 197
    13c6:	3f 4f       	sbci	r19, 0xFF	; 255
    13c8:	4f a9       	ldd	r20, Y+55	; 0x37
    13ca:	58 ad       	ldd	r21, Y+56	; 0x38
    13cc:	62 e3       	ldi	r22, 0x32	; 50
    13ce:	70 e0       	ldi	r23, 0x00	; 0
    13d0:	ce 01       	movw	r24, r28
    13d2:	01 96       	adiw	r24, 0x01	; 1
    13d4:	0e 94 2c 13 	call	0x2658	; 0x2658 <vsnprintf>
    va_end(args);  ///< End reading variable arguments

    screen_write_text_aligned(textStorage, line, alignment);  ///< Write formatted text to display
    13d8:	4a ad       	ldd	r20, Y+58	; 0x3a
    13da:	69 ad       	ldd	r22, Y+57	; 0x39
    13dc:	ce 01       	movw	r24, r28
    13de:	01 96       	adiw	r24, 0x01	; 1
    13e0:	0e 94 c9 09 	call	0x1392	; 0x1392 <screen_write_text_aligned>
}
    13e4:	e2 96       	adiw	r28, 0x32	; 50
    13e6:	cd bf       	out	0x3d, r28	; 61
    13e8:	de bf       	out	0x3e, r29	; 62
    13ea:	df 91       	pop	r29
    13ec:	cf 91       	pop	r28
    13ee:	08 95       	ret

000013f0 <Stepper_enable>:
	return !(PORTF.IN & PIN5_bm);
}

bool Read_Stepper_ALM(){ // true if driver has a error (overheat, stepepr stuck and so on)
	return !(PORTF.IN & PIN4_bm);
}
    13f0:	80 91 ee 65 	lds	r24, 0x65EE	; 0x8065ee <StepperMotor+0x3>
    13f4:	81 11       	cpse	r24, r1
    13f6:	11 c0       	rjmp	.+34     	; 0x141a <Stepper_enable+0x2a>
    13f8:	82 e0       	ldi	r24, 0x02	; 2
    13fa:	80 93 a6 04 	sts	0x04A6, r24	; 0x8004a6 <__TEXT_REGION_LENGTH__+0x7f04a6>
    13fe:	2f ef       	ldi	r18, 0xFF	; 255
    1400:	88 ef       	ldi	r24, 0xF8	; 248
    1402:	95 e1       	ldi	r25, 0x15	; 21
    1404:	21 50       	subi	r18, 0x01	; 1
    1406:	80 40       	sbci	r24, 0x00	; 0
    1408:	90 40       	sbci	r25, 0x00	; 0
    140a:	e1 f7       	brne	.-8      	; 0x1404 <Stepper_enable+0x14>
    140c:	00 c0       	rjmp	.+0      	; 0x140e <Stepper_enable+0x1e>
    140e:	00 00       	nop
    1410:	eb ee       	ldi	r30, 0xEB	; 235
    1412:	f5 e6       	ldi	r31, 0x65	; 101
    1414:	81 e0       	ldi	r24, 0x01	; 1
    1416:	83 83       	std	Z+3, r24	; 0x03
    1418:	14 82       	std	Z+4, r1	; 0x04
    141a:	08 95       	ret

0000141c <Stepper_disable>:
    141c:	80 91 ef 65 	lds	r24, 0x65EF	; 0x8065ef <StepperMotor+0x4>
    1420:	81 11       	cpse	r24, r1
    1422:	11 c0       	rjmp	.+34     	; 0x1446 <Stepper_disable+0x2a>
    1424:	82 e0       	ldi	r24, 0x02	; 2
    1426:	80 93 a5 04 	sts	0x04A5, r24	; 0x8004a5 <__TEXT_REGION_LENGTH__+0x7f04a5>
    142a:	2f ef       	ldi	r18, 0xFF	; 255
    142c:	88 ef       	ldi	r24, 0xF8	; 248
    142e:	95 e1       	ldi	r25, 0x15	; 21
    1430:	21 50       	subi	r18, 0x01	; 1
    1432:	80 40       	sbci	r24, 0x00	; 0
    1434:	90 40       	sbci	r25, 0x00	; 0
    1436:	e1 f7       	brne	.-8      	; 0x1430 <Stepper_disable+0x14>
    1438:	00 c0       	rjmp	.+0      	; 0x143a <Stepper_disable+0x1e>
    143a:	00 00       	nop
    143c:	eb ee       	ldi	r30, 0xEB	; 235
    143e:	f5 e6       	ldi	r31, 0x65	; 101
    1440:	81 e0       	ldi	r24, 0x01	; 1
    1442:	84 83       	std	Z+4, r24	; 0x04
    1444:	13 82       	std	Z+3, r1	; 0x03
    1446:	08 95       	ret

00001448 <Stepper_start>:
    1448:	80 91 ec 65 	lds	r24, 0x65EC	; 0x8065ec <StepperMotor+0x1>
    144c:	81 11       	cpse	r24, r1
    144e:	0e c0       	rjmp	.+28     	; 0x146c <Stepper_start+0x24>
    1450:	80 91 8e 0b 	lds	r24, 0x0B8E	; 0x800b8e <__TEXT_REGION_LENGTH__+0x7f0b8e>
    1454:	80 ff       	sbrs	r24, 0
    1456:	fc cf       	rjmp	.-8      	; 0x1450 <Stepper_start+0x8>
    1458:	e0 e8       	ldi	r30, 0x80	; 128
    145a:	fb e0       	ldi	r31, 0x0B	; 11
    145c:	80 81       	ld	r24, Z
    145e:	81 60       	ori	r24, 0x01	; 1
    1460:	80 83       	st	Z, r24
    1462:	eb ee       	ldi	r30, 0xEB	; 235
    1464:	f5 e6       	ldi	r31, 0x65	; 101
    1466:	81 e0       	ldi	r24, 0x01	; 1
    1468:	81 83       	std	Z+1, r24	; 0x01
    146a:	12 82       	std	Z+2, r1	; 0x02
    146c:	08 95       	ret

0000146e <Stepper_stop>:
    146e:	80 91 ed 65 	lds	r24, 0x65ED	; 0x8065ed <StepperMotor+0x2>
    1472:	81 11       	cpse	r24, r1
    1474:	0e c0       	rjmp	.+28     	; 0x1492 <Stepper_stop+0x24>
    1476:	80 91 8e 0b 	lds	r24, 0x0B8E	; 0x800b8e <__TEXT_REGION_LENGTH__+0x7f0b8e>
    147a:	80 ff       	sbrs	r24, 0
    147c:	fc cf       	rjmp	.-8      	; 0x1476 <Stepper_stop+0x8>
    147e:	e0 e8       	ldi	r30, 0x80	; 128
    1480:	fb e0       	ldi	r31, 0x0B	; 11
    1482:	80 81       	ld	r24, Z
    1484:	8e 7f       	andi	r24, 0xFE	; 254
    1486:	80 83       	st	Z, r24
    1488:	eb ee       	ldi	r30, 0xEB	; 235
    148a:	f5 e6       	ldi	r31, 0x65	; 101
    148c:	81 e0       	ldi	r24, 0x01	; 1
    148e:	82 83       	std	Z+2, r24	; 0x02
    1490:	11 82       	std	Z+1, r1	; 0x01
    1492:	08 95       	ret

00001494 <Stepper_set_direction>:
    1494:	cf 93       	push	r28
    1496:	90 91 eb 65 	lds	r25, 0x65EB	; 0x8065eb <StepperMotor>
    149a:	98 17       	cp	r25, r24
    149c:	99 f0       	breq	.+38     	; 0x14c4 <Stepper_set_direction+0x30>
    149e:	c8 2f       	mov	r28, r24
    14a0:	0e 94 37 0a 	call	0x146e	; 0x146e <Stepper_stop>
    14a4:	cc 23       	and	r28, r28
    14a6:	21 f0       	breq	.+8      	; 0x14b0 <Stepper_set_direction+0x1c>
    14a8:	88 e0       	ldi	r24, 0x08	; 8
    14aa:	80 93 a5 04 	sts	0x04A5, r24	; 0x8004a5 <__TEXT_REGION_LENGTH__+0x7f04a5>
    14ae:	03 c0       	rjmp	.+6      	; 0x14b6 <Stepper_set_direction+0x22>
    14b0:	88 e0       	ldi	r24, 0x08	; 8
    14b2:	80 93 a6 04 	sts	0x04A6, r24	; 0x8004a6 <__TEXT_REGION_LENGTH__+0x7f04a6>
    14b6:	88 e1       	ldi	r24, 0x18	; 24
    14b8:	8a 95       	dec	r24
    14ba:	f1 f7       	brne	.-4      	; 0x14b8 <Stepper_set_direction+0x24>
    14bc:	0e 94 24 0a 	call	0x1448	; 0x1448 <Stepper_start>
    14c0:	c0 93 eb 65 	sts	0x65EB, r28	; 0x8065eb <StepperMotor>
    14c4:	cf 91       	pop	r28
    14c6:	08 95       	ret

000014c8 <Stepper_init>:
    14c8:	42 e3       	ldi	r20, 0x32	; 50
    14ca:	60 e0       	ldi	r22, 0x00	; 0
    14cc:	72 e3       	ldi	r23, 0x32	; 50
    14ce:	80 e0       	ldi	r24, 0x00	; 0
    14d0:	90 e0       	ldi	r25, 0x00	; 0
    14d2:	0e 94 2e 0b 	call	0x165c	; 0x165c <TCD0_init_stepper_PWM>
    14d6:	08 95       	ret

000014d8 <Read_Stepper_Voltage>:

uint16_t Read_Stepper_Voltage(){
	ADC0_SetupStepper(0);
    14d8:	80 e0       	ldi	r24, 0x00	; 0
    14da:	0e 94 d0 02 	call	0x5a0	; 0x5a0 <ADC0_SetupStepper>
	return (ADC0_read() * 0.1775) * Stepper_Voltage_Compensation_koef;
    14de:	0e 94 e6 02 	call	0x5cc	; 0x5cc <ADC0_read>
    14e2:	bc 01       	movw	r22, r24
    14e4:	80 e0       	ldi	r24, 0x00	; 0
    14e6:	90 e0       	ldi	r25, 0x00	; 0
    14e8:	0e 94 15 10 	call	0x202a	; 0x202a <__floatunsisf>
    14ec:	2f e8       	ldi	r18, 0x8F	; 143
    14ee:	32 ec       	ldi	r19, 0xC2	; 194
    14f0:	45 e3       	ldi	r20, 0x35	; 53
    14f2:	5e e3       	ldi	r21, 0x3E	; 62
    14f4:	0e 94 a3 10 	call	0x2146	; 0x2146 <__mulsf3>
    14f8:	26 e6       	ldi	r18, 0x66	; 102
    14fa:	36 e6       	ldi	r19, 0x66	; 102
    14fc:	46 e8       	ldi	r20, 0x86	; 134
    14fe:	5f e3       	ldi	r21, 0x3F	; 63
    1500:	0e 94 a3 10 	call	0x2146	; 0x2146 <__mulsf3>
    1504:	0e 94 e6 0f 	call	0x1fcc	; 0x1fcc <__fixunssfsi>
}
    1508:	cb 01       	movw	r24, r22
    150a:	08 95       	ret

0000150c <Read_Stepper_Current>:

int16_t Read_Stepper_Current(){
    150c:	cf 93       	push	r28
    150e:	df 93       	push	r29
	ADC0_SetupStepper(1);
    1510:	81 e0       	ldi	r24, 0x01	; 1
    1512:	0e 94 d0 02 	call	0x5a0	; 0x5a0 <ADC0_SetupStepper>
	return ((int16_t)ADC0_read() - (int16_t)Read_MCU_Voltge())/4;
    1516:	0e 94 e6 02 	call	0x5cc	; 0x5cc <ADC0_read>
    151a:	ec 01       	movw	r28, r24
    151c:	0e 94 fa 02 	call	0x5f4	; 0x5f4 <Read_MCU_Voltge>
    1520:	9e 01       	movw	r18, r28
    1522:	28 1b       	sub	r18, r24
    1524:	39 0b       	sbc	r19, r25
    1526:	c9 01       	movw	r24, r18
    1528:	99 23       	and	r25, r25
    152a:	0c f4       	brge	.+2      	; 0x152e <Read_Stepper_Current+0x22>
    152c:	03 96       	adiw	r24, 0x03	; 3
    152e:	95 95       	asr	r25
    1530:	87 95       	ror	r24
    1532:	95 95       	asr	r25
    1534:	87 95       	ror	r24
    1536:	df 91       	pop	r29
    1538:	cf 91       	pop	r28
    153a:	08 95       	ret

0000153c <TCA0_init_linear_PWM>:
 *  Author: Saulius
 */ 
#include "Settings.h"

void TCA0_init_linear_PWM(uint16_t freq_hz, uint8_t duty_percent) //Auto TCA prescaler selection, that give us Frequency range: ~366Hz - ~93kHz. TLE9201SG max 20kHz
{
    153c:	8f 92       	push	r8
    153e:	9f 92       	push	r9
    1540:	af 92       	push	r10
    1542:	bf 92       	push	r11
    1544:	cf 92       	push	r12
    1546:	df 92       	push	r13
    1548:	ef 92       	push	r14
    154a:	ff 92       	push	r15
    154c:	0f 93       	push	r16
    154e:	1f 93       	push	r17
    1550:	cf 93       	push	r28
    1552:	df 93       	push	r29
    1554:	cd b7       	in	r28, 0x3d	; 61
    1556:	de b7       	in	r29, 0x3e	; 62
    1558:	68 97       	sbiw	r28, 0x18	; 24
    155a:	cd bf       	out	0x3d, r28	; 61
    155c:	de bf       	out	0x3e, r29	; 62
    155e:	7c 01       	movw	r14, r24
    1560:	c6 2e       	mov	r12, r22
	const uint16_t prescalers[] = {1, 2, 4, 8, 16, 64, 256, 1024};
    1562:	80 e1       	ldi	r24, 0x10	; 16
    1564:	ee e9       	ldi	r30, 0x9E	; 158
    1566:	f3 e6       	ldi	r31, 0x63	; 99
    1568:	de 01       	movw	r26, r28
    156a:	11 96       	adiw	r26, 0x01	; 1
    156c:	01 90       	ld	r0, Z+
    156e:	0d 92       	st	X+, r0
    1570:	8a 95       	dec	r24
    1572:	e1 f7       	brne	.-8      	; 0x156c <TCA0_init_linear_PWM+0x30>
	const uint8_t clk_select[] = {
    1574:	88 e0       	ldi	r24, 0x08	; 8
    1576:	ee ea       	ldi	r30, 0xAE	; 174
    1578:	f3 e6       	ldi	r31, 0x63	; 99
    157a:	de 01       	movw	r26, r28
    157c:	51 96       	adiw	r26, 0x11	; 17
    157e:	01 90       	ld	r0, Z+
    1580:	0d 92       	st	X+, r0
    1582:	8a 95       	dec	r24
    1584:	e1 f7       	brne	.-8      	; 0x157e <TCA0_init_linear_PWM+0x42>

	uint8_t chosen_clk = 0;
	uint8_t period = 0;

	// surandam tinkamà prescaler
	for (uint8_t i = 0; i < 8; i++) {
    1586:	d1 2c       	mov	r13, r1
    1588:	38 c0       	rjmp	.+112    	; 0x15fa <TCA0_init_linear_PWM+0xbe>
		uint32_t f_timer = F_CPU / prescalers[i];
    158a:	0d 2d       	mov	r16, r13
    158c:	10 e0       	ldi	r17, 0x00	; 0
    158e:	f8 01       	movw	r30, r16
    1590:	ee 0f       	add	r30, r30
    1592:	ff 1f       	adc	r31, r31
    1594:	81 e0       	ldi	r24, 0x01	; 1
    1596:	90 e0       	ldi	r25, 0x00	; 0
    1598:	8c 0f       	add	r24, r28
    159a:	9d 1f       	adc	r25, r29
    159c:	e8 0f       	add	r30, r24
    159e:	f9 1f       	adc	r31, r25
    15a0:	20 81       	ld	r18, Z
    15a2:	31 81       	ldd	r19, Z+1	; 0x01
    15a4:	40 e0       	ldi	r20, 0x00	; 0
    15a6:	50 e0       	ldi	r21, 0x00	; 0
    15a8:	60 e0       	ldi	r22, 0x00	; 0
    15aa:	76 e3       	ldi	r23, 0x36	; 54
    15ac:	8e e6       	ldi	r24, 0x6E	; 110
    15ae:	91 e0       	ldi	r25, 0x01	; 1
    15b0:	0e 94 46 11 	call	0x228c	; 0x228c <__divmodsi4>
		uint32_t tmp_period = (f_timer / freq_hz) - 1;
    15b4:	47 01       	movw	r8, r14
    15b6:	a1 2c       	mov	r10, r1
    15b8:	b1 2c       	mov	r11, r1
    15ba:	ca 01       	movw	r24, r20
    15bc:	b9 01       	movw	r22, r18
    15be:	a5 01       	movw	r20, r10
    15c0:	94 01       	movw	r18, r8
    15c2:	0e 94 24 11 	call	0x2248	; 0x2248 <__udivmodsi4>
    15c6:	da 01       	movw	r26, r20
    15c8:	c9 01       	movw	r24, r18
    15ca:	01 97       	sbiw	r24, 0x01	; 1
    15cc:	a1 09       	sbc	r26, r1
    15ce:	b1 09       	sbc	r27, r1

		if (tmp_period <= 255 && tmp_period >= 1) {
    15d0:	ba 01       	movw	r22, r20
    15d2:	a9 01       	movw	r20, r18
    15d4:	42 50       	subi	r20, 0x02	; 2
    15d6:	51 09       	sbc	r21, r1
    15d8:	61 09       	sbc	r22, r1
    15da:	71 09       	sbc	r23, r1
    15dc:	4f 3f       	cpi	r20, 0xFF	; 255
    15de:	51 05       	cpc	r21, r1
    15e0:	61 05       	cpc	r22, r1
    15e2:	71 05       	cpc	r23, r1
    15e4:	48 f4       	brcc	.+18     	; 0x15f8 <TCA0_init_linear_PWM+0xbc>
			period = (uint8_t)tmp_period;
    15e6:	f8 2e       	mov	r15, r24
			chosen_clk = clk_select[i];
    15e8:	e1 e1       	ldi	r30, 0x11	; 17
    15ea:	f0 e0       	ldi	r31, 0x00	; 0
    15ec:	ec 0f       	add	r30, r28
    15ee:	fd 1f       	adc	r31, r29
    15f0:	e0 0f       	add	r30, r16
    15f2:	f1 1f       	adc	r31, r17
    15f4:	10 81       	ld	r17, Z
			break; // radom maþiausià tinkamà prescaler
    15f6:	06 c0       	rjmp	.+12     	; 0x1604 <TCA0_init_linear_PWM+0xc8>

	uint8_t chosen_clk = 0;
	uint8_t period = 0;

	// surandam tinkamà prescaler
	for (uint8_t i = 0; i < 8; i++) {
    15f8:	d3 94       	inc	r13
    15fa:	97 e0       	ldi	r25, 0x07	; 7
    15fc:	9d 15       	cp	r25, r13
    15fe:	28 f6       	brcc	.-118    	; 0x158a <TCA0_init_linear_PWM+0x4e>
		TCA_SINGLE_CLKSEL_DIV256_gc,
		TCA_SINGLE_CLKSEL_DIV1024_gc
	};

	uint8_t chosen_clk = 0;
	uint8_t period = 0;
    1600:	f1 2c       	mov	r15, r1
		TCA_SINGLE_CLKSEL_DIV64_gc,
		TCA_SINGLE_CLKSEL_DIV256_gc,
		TCA_SINGLE_CLKSEL_DIV1024_gc
	};

	uint8_t chosen_clk = 0;
    1602:	10 e0       	ldi	r17, 0x00	; 0
			break; // radom maþiausià tinkamà prescaler
		}
	}

	// duty skaièiavimas
	uint8_t duty = (uint32_t)period * duty_percent / 100;
    1604:	2f 2d       	mov	r18, r15
    1606:	30 e0       	ldi	r19, 0x00	; 0
    1608:	ac 2d       	mov	r26, r12
    160a:	b0 e0       	ldi	r27, 0x00	; 0
    160c:	0e 94 65 11 	call	0x22ca	; 0x22ca <__umulhisi3>
    1610:	24 e6       	ldi	r18, 0x64	; 100
    1612:	30 e0       	ldi	r19, 0x00	; 0
    1614:	40 e0       	ldi	r20, 0x00	; 0
    1616:	50 e0       	ldi	r21, 0x00	; 0
    1618:	0e 94 24 11 	call	0x2248	; 0x2248 <__udivmodsi4>
	if (duty > period) duty = period;
    161c:	f2 16       	cp	r15, r18
    161e:	08 f4       	brcc	.+2      	; 0x1622 <TCA0_init_linear_PWM+0xe6>
    1620:	2f 2d       	mov	r18, r15

	// konfigûracija
	PORTMUX.TCAROUTEA = PORTMUX_TCA0_PORTD_gc;  // WOx ant PORTD
    1622:	83 e0       	ldi	r24, 0x03	; 3
    1624:	80 93 e7 05 	sts	0x05E7, r24	; 0x8005e7 <__TEXT_REGION_LENGTH__+0x7f05e7>

	TCA0.SPLIT.CTRLD = TCA_SPLIT_SPLITM_bm;   // Split mode
    1628:	e0 e0       	ldi	r30, 0x00	; 0
    162a:	fa e0       	ldi	r31, 0x0A	; 10
    162c:	81 e0       	ldi	r24, 0x01	; 1
    162e:	83 83       	std	Z+3, r24	; 0x03
	TCA0.SPLIT.CTRLB = TCA_SPLIT_HCMP0EN_bm;    // enable WO3 (HCMP0 ? PD3)
    1630:	80 e1       	ldi	r24, 0x10	; 16
    1632:	81 83       	std	Z+1, r24	; 0x01

	TCA0.SPLIT.HPER  = period;
    1634:	f7 a2       	std	Z+39, r15	; 0x27
	TCA0.SPLIT.HCMP0 = duty;
    1636:	21 a7       	std	Z+41, r18	; 0x29

	TCA0.SPLIT.CTRLA = chosen_clk | TCA_SPLIT_ENABLE_bm; // paleidþiam su pasirinktu prescaler
    1638:	11 60       	ori	r17, 0x01	; 1
    163a:	10 83       	st	Z, r17
}
    163c:	68 96       	adiw	r28, 0x18	; 24
    163e:	cd bf       	out	0x3d, r28	; 61
    1640:	de bf       	out	0x3e, r29	; 62
    1642:	df 91       	pop	r29
    1644:	cf 91       	pop	r28
    1646:	1f 91       	pop	r17
    1648:	0f 91       	pop	r16
    164a:	ff 90       	pop	r15
    164c:	ef 90       	pop	r14
    164e:	df 90       	pop	r13
    1650:	cf 90       	pop	r12
    1652:	bf 90       	pop	r11
    1654:	af 90       	pop	r10
    1656:	9f 90       	pop	r9
    1658:	8f 90       	pop	r8
    165a:	08 95       	ret

0000165c <TCD0_init_stepper_PWM>:
 * @date 2025-01-09
 */

#include "Settings.h"

void TCD0_init_stepper_PWM(uint32_t freq_hz, uint8_t duty_percent) {
    165c:	cf 92       	push	r12
    165e:	df 92       	push	r13
    1660:	ef 92       	push	r14
    1662:	ff 92       	push	r15
    1664:	0f 93       	push	r16
    1666:	1f 93       	push	r17
    1668:	cf 93       	push	r28
    166a:	df 93       	push	r29
    166c:	c4 2f       	mov	r28, r20

	// Calculate compare registers
	uint16_t cmpbclr = (F_CPU / (32 * freq_hz * 2)) - 1;
    166e:	dc 01       	movw	r26, r24
    1670:	cb 01       	movw	r24, r22
    1672:	88 0f       	add	r24, r24
    1674:	99 1f       	adc	r25, r25
    1676:	aa 1f       	adc	r26, r26
    1678:	bb 1f       	adc	r27, r27
    167a:	88 0f       	add	r24, r24
    167c:	99 1f       	adc	r25, r25
    167e:	aa 1f       	adc	r26, r26
    1680:	bb 1f       	adc	r27, r27
    1682:	88 0f       	add	r24, r24
    1684:	99 1f       	adc	r25, r25
    1686:	aa 1f       	adc	r26, r26
    1688:	bb 1f       	adc	r27, r27
    168a:	88 0f       	add	r24, r24
    168c:	99 1f       	adc	r25, r25
    168e:	aa 1f       	adc	r26, r26
    1690:	bb 1f       	adc	r27, r27
    1692:	9c 01       	movw	r18, r24
    1694:	ad 01       	movw	r20, r26
    1696:	22 0f       	add	r18, r18
    1698:	33 1f       	adc	r19, r19
    169a:	44 1f       	adc	r20, r20
    169c:	55 1f       	adc	r21, r21
    169e:	22 0f       	add	r18, r18
    16a0:	33 1f       	adc	r19, r19
    16a2:	44 1f       	adc	r20, r20
    16a4:	55 1f       	adc	r21, r21
    16a6:	60 e0       	ldi	r22, 0x00	; 0
    16a8:	76 e3       	ldi	r23, 0x36	; 54
    16aa:	8e e6       	ldi	r24, 0x6E	; 110
    16ac:	91 e0       	ldi	r25, 0x01	; 1
    16ae:	0e 94 24 11 	call	0x2248	; 0x2248 <__udivmodsi4>
    16b2:	89 01       	movw	r16, r18
    16b4:	01 50       	subi	r16, 0x01	; 1
    16b6:	11 09       	sbc	r17, r1
	uint16_t cmpaset = (uint16_t)(cmpbclr * (duty_percent / 100.0)) + 1;
    16b8:	6c 2f       	mov	r22, r28
    16ba:	70 e0       	ldi	r23, 0x00	; 0
    16bc:	80 e0       	ldi	r24, 0x00	; 0
    16be:	90 e0       	ldi	r25, 0x00	; 0
    16c0:	0e 94 17 10 	call	0x202e	; 0x202e <__floatsisf>
    16c4:	20 e0       	ldi	r18, 0x00	; 0
    16c6:	30 e0       	ldi	r19, 0x00	; 0
    16c8:	48 ec       	ldi	r20, 0xC8	; 200
    16ca:	52 e4       	ldi	r21, 0x42	; 66
    16cc:	0e 94 74 0f 	call	0x1ee8	; 0x1ee8 <__divsf3>
    16d0:	6b 01       	movw	r12, r22
    16d2:	7c 01       	movw	r14, r24
    16d4:	b8 01       	movw	r22, r16
    16d6:	80 e0       	ldi	r24, 0x00	; 0
    16d8:	90 e0       	ldi	r25, 0x00	; 0
    16da:	0e 94 15 10 	call	0x202a	; 0x202a <__floatunsisf>
    16de:	a7 01       	movw	r20, r14
    16e0:	96 01       	movw	r18, r12
    16e2:	0e 94 a3 10 	call	0x2146	; 0x2146 <__mulsf3>
    16e6:	0e 94 e6 0f 	call	0x1fcc	; 0x1fcc <__fixunssfsi>
    16ea:	6f 5f       	subi	r22, 0xFF	; 255
    16ec:	7f 4f       	sbci	r23, 0xFF	; 255
	uint16_t cmpbset = cmpbclr - cmpaset - 1;
    16ee:	c8 01       	movw	r24, r16
    16f0:	86 1b       	sub	r24, r22
    16f2:	97 0b       	sbc	r25, r23
    16f4:	01 97       	sbiw	r24, 0x01	; 1

	// Set TCD compare registers
	TCD0.CMPBCLR = cmpbclr;
    16f6:	c0 e8       	ldi	r28, 0x80	; 128
    16f8:	db e0       	ldi	r29, 0x0B	; 11
    16fa:	0e a7       	std	Y+46, r16	; 0x2e
    16fc:	1f a7       	std	Y+47, r17	; 0x2f
	TCD0.CMPBSET = cmpbset;
    16fe:	8c a7       	std	Y+44, r24	; 0x2c
    1700:	9d a7       	std	Y+45, r25	; 0x2d
	TCD0.CMPASET = cmpaset;
    1702:	68 a7       	std	Y+40, r22	; 0x28
    1704:	79 a7       	std	Y+41, r23	; 0x29

	ccp_write_io((uint8_t *) &TCD0.FAULTCTRL, TCD_CMPCEN_bm); ///< Enable WOC on PF2
    1706:	60 e4       	ldi	r22, 0x40	; 64
    1708:	82 e9       	ldi	r24, 0x92	; 146
    170a:	9b e0       	ldi	r25, 0x0B	; 11
    170c:	0e 94 ec 15 	call	0x2bd8	; 0x2bd8 <ccp_write_io>
	TCD0.CTRLB = TCD_WGMODE_DS_gc; ///< Set waveform mode to double slope
    1710:	83 e0       	ldi	r24, 0x03	; 3
    1712:	89 83       	std	Y+1, r24	; 0x01
	// Ájungiam WOC iðëjimà
	//TCD0.FAULTCTRL = TCD_CMPAEN_bm | TCD_CMPBEN_bm | TCD_CMPCEN_bm;

	// Paleidþiam su prescaler = 4
	//TCD0.CTRLA = TCD_CLKSEL_CLKPER_gc | TCD_CNTPRES_DIV4_gc;
	ccp_write_io((uint8_t *) &TCD0.CTRLA, TCD_CLKSEL_CLKPER_gc | TCD_CNTPRES_DIV32_gc);
    1714:	60 e7       	ldi	r22, 0x70	; 112
    1716:	80 e8       	ldi	r24, 0x80	; 128
    1718:	9b e0       	ldi	r25, 0x0B	; 11
    171a:	0e 94 ec 15 	call	0x2bd8	; 0x2bd8 <ccp_write_io>
	// Palaukti, kol sinchronizuosis
	//while (!(TCD0.STATUS & TCD_ENRDY_bm));
/*
			while (!(TCD0.STATUS & TCD_ENRDY_bm));
			TCD0.CTRLA |= TCD_ENABLE_bm;*/
    171e:	df 91       	pop	r29
    1720:	cf 91       	pop	r28
    1722:	1f 91       	pop	r17
    1724:	0f 91       	pop	r16
    1726:	ff 90       	pop	r15
    1728:	ef 90       	pop	r14
    172a:	df 90       	pop	r13
    172c:	cf 90       	pop	r12
    172e:	08 95       	ret

00001730 <USART0_init>:
 * @return 0 on success.
 */
int USART1_printChar(char c, FILE *stream) {
	USART1_sendChar(c); // Send character
	return 0;
}
    1730:	e0 e0       	ldi	r30, 0x00	; 0
    1732:	f8 e0       	ldi	r31, 0x08	; 8
    1734:	83 e8       	ldi	r24, 0x83	; 131
    1736:	96 e0       	ldi	r25, 0x06	; 6
    1738:	80 87       	std	Z+8, r24	; 0x08
    173a:	91 87       	std	Z+9, r25	; 0x09
    173c:	81 e0       	ldi	r24, 0x01	; 1
    173e:	85 83       	std	Z+5, r24	; 0x05
    1740:	82 ec       	ldi	r24, 0xC2	; 194
    1742:	86 83       	std	Z+6, r24	; 0x06
    1744:	83 e0       	ldi	r24, 0x03	; 3
    1746:	87 83       	std	Z+7, r24	; 0x07
    1748:	08 95       	ret

0000174a <USART0_readChar>:
    174a:	ff 92       	push	r15
    174c:	0f 93       	push	r16
    174e:	1f 93       	push	r17
    1750:	cf 93       	push	r28
    1752:	df 93       	push	r29
    1754:	80 e8       	ldi	r24, 0x80	; 128
    1756:	80 93 04 08 	sts	0x0804, r24	; 0x800804 <__TEXT_REGION_LENGTH__+0x7f0804>
    175a:	68 94       	set
    175c:	ff 24       	eor	r15, r15
    175e:	f6 f8       	bld	r15, 6
    1760:	0d e0       	ldi	r16, 0x0D	; 13
    1762:	13 e0       	ldi	r17, 0x03	; 3
    1764:	d0 e0       	ldi	r29, 0x00	; 0
    1766:	c0 e0       	ldi	r28, 0x00	; 0
    1768:	b0 e0       	ldi	r27, 0x00	; 0
    176a:	f0 e0       	ldi	r31, 0x00	; 0
    176c:	e0 e0       	ldi	r30, 0x00	; 0
    176e:	1b c0       	rjmp	.+54     	; 0x17a6 <USART0_readChar+0x5c>
    1770:	2f 2d       	mov	r18, r15
    1772:	30 2f       	mov	r19, r16
    1774:	41 2f       	mov	r20, r17
    1776:	5d 2f       	mov	r21, r29
    1778:	6c 2f       	mov	r22, r28
    177a:	7b 2f       	mov	r23, r27
    177c:	8f 2f       	mov	r24, r31
    177e:	9e 2f       	mov	r25, r30
    1780:	af ef       	ldi	r26, 0xFF	; 255
    1782:	0e 94 ab 11 	call	0x2356	; 0x2356 <__adddi3_s8>
    1786:	f2 2e       	mov	r15, r18
    1788:	03 2f       	mov	r16, r19
    178a:	14 2f       	mov	r17, r20
    178c:	d5 2f       	mov	r29, r21
    178e:	c6 2f       	mov	r28, r22
    1790:	b7 2f       	mov	r27, r23
    1792:	f8 2f       	mov	r31, r24
    1794:	e9 2f       	mov	r30, r25
    1796:	a0 e0       	ldi	r26, 0x00	; 0
    1798:	0e 94 b7 11 	call	0x236e	; 0x236e <__cmpdi2_s8>
    179c:	21 f4       	brne	.+8      	; 0x17a6 <USART0_readChar+0x5c>
    179e:	81 e0       	ldi	r24, 0x01	; 1
    17a0:	80 93 e9 65 	sts	0x65E9, r24	; 0x8065e9 <WSData+0xb>
    17a4:	04 c0       	rjmp	.+8      	; 0x17ae <USART0_readChar+0x64>
    17a6:	80 91 04 08 	lds	r24, 0x0804	; 0x800804 <__TEXT_REGION_LENGTH__+0x7f0804>
    17aa:	88 23       	and	r24, r24
    17ac:	0c f7       	brge	.-62     	; 0x1770 <USART0_readChar+0x26>
    17ae:	80 91 00 08 	lds	r24, 0x0800	; 0x800800 <__TEXT_REGION_LENGTH__+0x7f0800>
    17b2:	df 91       	pop	r29
    17b4:	cf 91       	pop	r28
    17b6:	1f 91       	pop	r17
    17b8:	0f 91       	pop	r16
    17ba:	ff 90       	pop	r15
    17bc:	08 95       	ret

000017be <USART1_init>:
    17be:	e0 e2       	ldi	r30, 0x20	; 32
    17c0:	f8 e0       	ldi	r31, 0x08	; 8
    17c2:	81 ea       	ldi	r24, 0xA1	; 161
    17c4:	91 e0       	ldi	r25, 0x01	; 1
    17c6:	80 87       	std	Z+8, r24	; 0x08
    17c8:	91 87       	std	Z+9, r25	; 0x09
    17ca:	82 e8       	ldi	r24, 0x82	; 130
    17cc:	86 83       	std	Z+6, r24	; 0x06
    17ce:	83 e0       	ldi	r24, 0x03	; 3
    17d0:	87 83       	std	Z+7, r24	; 0x07
    17d2:	08 95       	ret

000017d4 <USART1_readChar>:
 * If a timeout occurs, it returns a predefined warning.
 * 
 * @return The received character.
 */
char USART1_readChar() {
	USART1.STATUS = USART_RXCIF_bm; // Clear buffer before reading
    17d4:	80 e8       	ldi	r24, 0x80	; 128
    17d6:	80 93 24 08 	sts	0x0824, r24	; 0x800824 <__TEXT_REGION_LENGTH__+0x7f0824>
	uint32_t timeout_counter = FO_TIMEOUT_COUNTER; // Set a timeout counter
    17da:	80 eb       	ldi	r24, 0xB0	; 176
    17dc:	9e e1       	ldi	r25, 0x1E	; 30
    17de:	a4 e0       	ldi	r26, 0x04	; 4
    17e0:	b0 e0       	ldi	r27, 0x00	; 0
	while (!(USART1.STATUS & USART_RXCIF_bm)) { // Wait for data to be received
    17e2:	08 c0       	rjmp	.+16     	; 0x17f4 <USART1_readChar+0x20>
		if (--timeout_counter == 0) { // Timeout condition
    17e4:	01 97       	sbiw	r24, 0x01	; 1
    17e6:	a1 09       	sbc	r26, r1
    17e8:	b1 09       	sbc	r27, r1
    17ea:	21 f4       	brne	.+8      	; 0x17f4 <USART1_readChar+0x20>
			//screen_write_formatted_text("USART1 timeout", 0, ALIGN_LEFT);// uncomment for timeout number finding, when timeout number is set corectly this line should not to be visible at all. if timeout is to small you will see this line 
			//_delay_ms(100);
			//screen_write_formatted_text("              ", 0, ALIGN_LEFT);
			SensorData.FO_lost_signal_fault = true;
    17ec:	81 e0       	ldi	r24, 0x01	; 1
    17ee:	80 93 b3 65 	sts	0x65B3, r24	; 0x8065b3 <__data_end+0x11>
			break; //just exit from this while cycle
    17f2:	04 c0       	rjmp	.+8      	; 0x17fc <USART1_readChar+0x28>
 * @return The received character.
 */
char USART1_readChar() {
	USART1.STATUS = USART_RXCIF_bm; // Clear buffer before reading
	uint32_t timeout_counter = FO_TIMEOUT_COUNTER; // Set a timeout counter
	while (!(USART1.STATUS & USART_RXCIF_bm)) { // Wait for data to be received
    17f4:	20 91 24 08 	lds	r18, 0x0824	; 0x800824 <__TEXT_REGION_LENGTH__+0x7f0824>
    17f8:	22 23       	and	r18, r18
    17fa:	a4 f7       	brge	.-24     	; 0x17e4 <USART1_readChar+0x10>
			SensorData.FO_lost_signal_fault = true;
			break; //just exit from this while cycle

		}
	}
	return USART1.RXDATAL; // Return received character
    17fc:	80 91 20 08 	lds	r24, 0x0820	; 0x800820 <__TEXT_REGION_LENGTH__+0x7f0820>
}
    1800:	08 95       	ret

00001802 <screenUpdater>:
 */

#include "Settings.h"
#include "windowsVar.h"

bool screenUpdater(uint8_t window){ //update window data if any changes only
    1802:	1f 93       	push	r17
    1804:	cf 93       	push	r28
    1806:	df 93       	push	r29
    1808:	cd b7       	in	r28, 0x3d	; 61
    180a:	de b7       	in	r29, 0x3e	; 62
    180c:	68 97       	sbiw	r28, 0x18	; 24
    180e:	cd bf       	out	0x3d, r28	; 61
    1810:	de bf       	out	0x3e, r29	; 62
    1812:	18 2f       	mov	r17, r24
	uint16_t values[MAX_VARS]={0};
    1814:	fe 01       	movw	r30, r28
    1816:	31 96       	adiw	r30, 0x01	; 1
    1818:	88 e1       	ldi	r24, 0x18	; 24
    181a:	df 01       	movw	r26, r30
    181c:	1d 92       	st	X+, r1
    181e:	8a 95       	dec	r24
    1820:	e9 f7       	brne	.-6      	; 0x181c <screenUpdater+0x1a>
	bool update = false;

	if(show.lastWindow != window)
    1822:	80 91 f7 65 	lds	r24, 0x65F7	; 0x8065f7 <show+0x1>
    1826:	81 13       	cpse	r24, r17
		screen_clear();
    1828:	0e 94 39 09 	call	0x1272	; 0x1272 <screen_clear>
	switch (window){
    182c:	11 23       	and	r17, r17
    182e:	21 f0       	breq	.+8      	; 0x1838 <screenUpdater+0x36>
    1830:	11 30       	cpi	r17, 0x01	; 1
    1832:	09 f4       	brne	.+2      	; 0x1836 <screenUpdater+0x34>
    1834:	75 c0       	rjmp	.+234    	; 0x1920 <screenUpdater+0x11e>
    1836:	cc c0       	rjmp	.+408    	; 0x19d0 <screenUpdater+0x1ce>
		case 0:
			values[0] = Target.elevation;
    1838:	aa e4       	ldi	r26, 0x4A	; 74
    183a:	b0 e6       	ldi	r27, 0x60	; 96
    183c:	8d 91       	ld	r24, X+
    183e:	9c 91       	ld	r25, X
    1840:	11 97       	sbiw	r26, 0x01	; 1
    1842:	89 83       	std	Y+1, r24	; 0x01
    1844:	9a 83       	std	Y+2, r25	; 0x02
			values[1] = SensorData.Elevation;
    1846:	e2 ea       	ldi	r30, 0xA2	; 162
    1848:	f5 e6       	ldi	r31, 0x65	; 101
    184a:	80 81       	ld	r24, Z
    184c:	91 81       	ldd	r25, Z+1	; 0x01
    184e:	8b 83       	std	Y+3, r24	; 0x03
    1850:	9c 83       	std	Y+4, r25	; 0x04
			values[2] = Target.azimuth;
    1852:	15 96       	adiw	r26, 0x05	; 5
    1854:	8d 91       	ld	r24, X+
    1856:	9c 91       	ld	r25, X
    1858:	16 97       	sbiw	r26, 0x06	; 6
    185a:	8d 83       	std	Y+5, r24	; 0x05
    185c:	9e 83       	std	Y+6, r25	; 0x06
			values[3] = SensorData.Azimuth;
    185e:	84 81       	ldd	r24, Z+4	; 0x04
    1860:	95 81       	ldd	r25, Z+5	; 0x05
    1862:	8f 83       	std	Y+7, r24	; 0x07
    1864:	98 87       	std	Y+8, r25	; 0x08
			values[4] = Joystick.LatchSwitch;
    1866:	80 91 d1 65 	lds	r24, 0x65D1	; 0x8065d1 <Joystick+0x6>
    186a:	90 e0       	ldi	r25, 0x00	; 0
    186c:	89 87       	std	Y+9, r24	; 0x09
    186e:	9a 87       	std	Y+10, r25	; 0x0a
			values[5] = SensorData.FO_data_fault;
    1870:	82 89       	ldd	r24, Z+18	; 0x12
    1872:	90 e0       	ldi	r25, 0x00	; 0
    1874:	8b 87       	std	Y+11, r24	; 0x0b
    1876:	9c 87       	std	Y+12, r25	; 0x0c
			values[6] = SensorData.FO_bad_signal_fault;
    1878:	80 89       	ldd	r24, Z+16	; 0x10
    187a:	90 e0       	ldi	r25, 0x00	; 0
    187c:	8d 87       	std	Y+13, r24	; 0x0d
    187e:	9e 87       	std	Y+14, r25	; 0x0e
			values[7] = SensorData.FO_lost_connecton_fault;
    1880:	83 89       	ldd	r24, Z+19	; 0x13
    1882:	90 e0       	ldi	r25, 0x00	; 0
    1884:	8f 87       	std	Y+15, r24	; 0x0f
    1886:	98 8b       	std	Y+16, r25	; 0x10
			values[8] = SensorData.FO_elevation_sensor_fault;
    1888:	84 89       	ldd	r24, Z+20	; 0x14
    188a:	90 e0       	ldi	r25, 0x00	; 0
    188c:	89 8b       	std	Y+17, r24	; 0x11
    188e:	9a 8b       	std	Y+18, r25	; 0x12
			values[9] = SensorData.FO_azimuth_sensor_fault;
    1890:	85 89       	ldd	r24, Z+21	; 0x15
    1892:	90 e0       	ldi	r25, 0x00	; 0
    1894:	8b 8b       	std	Y+19, r24	; 0x13
    1896:	9c 8b       	std	Y+20, r25	; 0x14
			values[10] = WSData.WS_lost_connecton_fault;
    1898:	ee ed       	ldi	r30, 0xDE	; 222
    189a:	f5 e6       	ldi	r31, 0x65	; 101
    189c:	82 85       	ldd	r24, Z+10	; 0x0a
    189e:	90 e0       	ldi	r25, 0x00	; 0
    18a0:	8d 8b       	std	Y+21, r24	; 0x15
    18a2:	9e 8b       	std	Y+22, r25	; 0x16
			values[11] = WSData.WS_data_fault;
    18a4:	84 85       	ldd	r24, Z+12	; 0x0c
    18a6:	90 e0       	ldi	r25, 0x00	; 0
    18a8:	8f 8b       	std	Y+23, r24	; 0x17
    18aa:	98 8f       	std	Y+24, r25	; 0x18
			for (uint8_t i=0; i<11; i++){
    18ac:	20 e0       	ldi	r18, 0x00	; 0
    18ae:	18 c0       	rjmp	.+48     	; 0x18e0 <screenUpdater+0xde>
				if(show.lastValues[i] != values[i]){
    18b0:	82 2f       	mov	r24, r18
    18b2:	90 e0       	ldi	r25, 0x00	; 0
    18b4:	fc 01       	movw	r30, r24
    18b6:	31 96       	adiw	r30, 0x01	; 1
    18b8:	ee 0f       	add	r30, r30
    18ba:	ff 1f       	adc	r31, r31
    18bc:	ea 50       	subi	r30, 0x0A	; 10
    18be:	fa 49       	sbci	r31, 0x9A	; 154
    18c0:	40 81       	ld	r20, Z
    18c2:	51 81       	ldd	r21, Z+1	; 0x01
    18c4:	88 0f       	add	r24, r24
    18c6:	99 1f       	adc	r25, r25
    18c8:	e1 e0       	ldi	r30, 0x01	; 1
    18ca:	f0 e0       	ldi	r31, 0x00	; 0
    18cc:	ec 0f       	add	r30, r28
    18ce:	fd 1f       	adc	r31, r29
    18d0:	e8 0f       	add	r30, r24
    18d2:	f9 1f       	adc	r31, r25
    18d4:	80 81       	ld	r24, Z
    18d6:	91 81       	ldd	r25, Z+1	; 0x01
    18d8:	48 17       	cp	r20, r24
    18da:	59 07       	cpc	r21, r25
    18dc:	29 f4       	brne	.+10     	; 0x18e8 <screenUpdater+0xe6>
			values[7] = SensorData.FO_lost_connecton_fault;
			values[8] = SensorData.FO_elevation_sensor_fault;
			values[9] = SensorData.FO_azimuth_sensor_fault;
			values[10] = WSData.WS_lost_connecton_fault;
			values[11] = WSData.WS_data_fault;
			for (uint8_t i=0; i<11; i++){
    18de:	2f 5f       	subi	r18, 0xFF	; 255
    18e0:	2b 30       	cpi	r18, 0x0B	; 11
    18e2:	30 f3       	brcs	.-52     	; 0x18b0 <screenUpdater+0xae>
#include "Settings.h"
#include "windowsVar.h"

bool screenUpdater(uint8_t window){ //update window data if any changes only
	uint16_t values[MAX_VARS]={0};
	bool update = false;
    18e4:	80 e0       	ldi	r24, 0x00	; 0
    18e6:	01 c0       	rjmp	.+2      	; 0x18ea <screenUpdater+0xe8>
			values[9] = SensorData.FO_azimuth_sensor_fault;
			values[10] = WSData.WS_lost_connecton_fault;
			values[11] = WSData.WS_data_fault;
			for (uint8_t i=0; i<11; i++){
				if(show.lastValues[i] != values[i]){
				update = true;
    18e8:	81 e0       	ldi	r24, 0x01	; 1
				break;
				}
			}
			for (uint8_t i=0; i<11; i++){
    18ea:	90 e0       	ldi	r25, 0x00	; 0
    18ec:	16 c0       	rjmp	.+44     	; 0x191a <screenUpdater+0x118>
				show.lastValues[i] = values[i];
    18ee:	29 2f       	mov	r18, r25
    18f0:	30 e0       	ldi	r19, 0x00	; 0
    18f2:	f9 01       	movw	r30, r18
    18f4:	ee 0f       	add	r30, r30
    18f6:	ff 1f       	adc	r31, r31
    18f8:	41 e0       	ldi	r20, 0x01	; 1
    18fa:	50 e0       	ldi	r21, 0x00	; 0
    18fc:	4c 0f       	add	r20, r28
    18fe:	5d 1f       	adc	r21, r29
    1900:	e4 0f       	add	r30, r20
    1902:	f5 1f       	adc	r31, r21
    1904:	40 81       	ld	r20, Z
    1906:	51 81       	ldd	r21, Z+1	; 0x01
    1908:	f9 01       	movw	r30, r18
    190a:	31 96       	adiw	r30, 0x01	; 1
    190c:	ee 0f       	add	r30, r30
    190e:	ff 1f       	adc	r31, r31
    1910:	ea 50       	subi	r30, 0x0A	; 10
    1912:	fa 49       	sbci	r31, 0x9A	; 154
    1914:	40 83       	st	Z, r20
    1916:	51 83       	std	Z+1, r21	; 0x01
				if(show.lastValues[i] != values[i]){
				update = true;
				break;
				}
			}
			for (uint8_t i=0; i<11; i++){
    1918:	9f 5f       	subi	r25, 0xFF	; 255
    191a:	9b 30       	cpi	r25, 0x0B	; 11
    191c:	40 f3       	brcs	.-48     	; 0x18ee <screenUpdater+0xec>
    191e:	59 c0       	rjmp	.+178    	; 0x19d2 <screenUpdater+0x1d0>
				show.lastValues[i] = values[i];
			}
		break;
		case 1:
			values[0] = SensorData.PVU;
    1920:	e2 ea       	ldi	r30, 0xA2	; 162
    1922:	f5 e6       	ldi	r31, 0x65	; 101
    1924:	80 85       	ldd	r24, Z+8	; 0x08
    1926:	91 85       	ldd	r25, Z+9	; 0x09
    1928:	89 83       	std	Y+1, r24	; 0x01
    192a:	9a 83       	std	Y+2, r25	; 0x02
			values[1] = SensorData.PVI;
    192c:	82 85       	ldd	r24, Z+10	; 0x0a
    192e:	93 85       	ldd	r25, Z+11	; 0x0b
    1930:	8b 83       	std	Y+3, r24	; 0x03
    1932:	9c 83       	std	Y+4, r25	; 0x04
			values[2] = StepperMotor.measuredVoltage;
    1934:	eb ee       	ldi	r30, 0xEB	; 235
    1936:	f5 e6       	ldi	r31, 0x65	; 101
    1938:	85 81       	ldd	r24, Z+5	; 0x05
    193a:	96 81       	ldd	r25, Z+6	; 0x06
    193c:	8d 83       	std	Y+5, r24	; 0x05
    193e:	9e 83       	std	Y+6, r25	; 0x06
			values[3] = StepperMotor.measuredCurrent;
    1940:	87 81       	ldd	r24, Z+7	; 0x07
    1942:	90 85       	ldd	r25, Z+8	; 0x08
    1944:	8f 83       	std	Y+7, r24	; 0x07
    1946:	98 87       	std	Y+8, r25	; 0x08
			values[4] = LinearMotor.measuredVoltage;
    1948:	e3 ed       	ldi	r30, 0xD3	; 211
    194a:	f5 e6       	ldi	r31, 0x65	; 101
    194c:	85 81       	ldd	r24, Z+5	; 0x05
    194e:	96 81       	ldd	r25, Z+6	; 0x06
    1950:	89 87       	std	Y+9, r24	; 0x09
    1952:	9a 87       	std	Y+10, r25	; 0x0a
			values[5] = LinearMotor.measuredCurrent;
    1954:	87 81       	ldd	r24, Z+7	; 0x07
    1956:	90 85       	ldd	r25, Z+8	; 0x08
    1958:	8b 87       	std	Y+11, r24	; 0x0b
    195a:	9c 87       	std	Y+12, r25	; 0x0c
			for (uint8_t i=0; i<6; i++){
    195c:	20 e0       	ldi	r18, 0x00	; 0
    195e:	18 c0       	rjmp	.+48     	; 0x1990 <screenUpdater+0x18e>
				if(show.lastValues[i] != values[i]){
    1960:	82 2f       	mov	r24, r18
    1962:	90 e0       	ldi	r25, 0x00	; 0
    1964:	fc 01       	movw	r30, r24
    1966:	31 96       	adiw	r30, 0x01	; 1
    1968:	ee 0f       	add	r30, r30
    196a:	ff 1f       	adc	r31, r31
    196c:	ea 50       	subi	r30, 0x0A	; 10
    196e:	fa 49       	sbci	r31, 0x9A	; 154
    1970:	40 81       	ld	r20, Z
    1972:	51 81       	ldd	r21, Z+1	; 0x01
    1974:	88 0f       	add	r24, r24
    1976:	99 1f       	adc	r25, r25
    1978:	e1 e0       	ldi	r30, 0x01	; 1
    197a:	f0 e0       	ldi	r31, 0x00	; 0
    197c:	ec 0f       	add	r30, r28
    197e:	fd 1f       	adc	r31, r29
    1980:	e8 0f       	add	r30, r24
    1982:	f9 1f       	adc	r31, r25
    1984:	80 81       	ld	r24, Z
    1986:	91 81       	ldd	r25, Z+1	; 0x01
    1988:	48 17       	cp	r20, r24
    198a:	59 07       	cpc	r21, r25
    198c:	29 f4       	brne	.+10     	; 0x1998 <screenUpdater+0x196>
			values[1] = SensorData.PVI;
			values[2] = StepperMotor.measuredVoltage;
			values[3] = StepperMotor.measuredCurrent;
			values[4] = LinearMotor.measuredVoltage;
			values[5] = LinearMotor.measuredCurrent;
			for (uint8_t i=0; i<6; i++){
    198e:	2f 5f       	subi	r18, 0xFF	; 255
    1990:	26 30       	cpi	r18, 0x06	; 6
    1992:	30 f3       	brcs	.-52     	; 0x1960 <screenUpdater+0x15e>
#include "Settings.h"
#include "windowsVar.h"

bool screenUpdater(uint8_t window){ //update window data if any changes only
	uint16_t values[MAX_VARS]={0};
	bool update = false;
    1994:	80 e0       	ldi	r24, 0x00	; 0
    1996:	01 c0       	rjmp	.+2      	; 0x199a <screenUpdater+0x198>
			values[3] = StepperMotor.measuredCurrent;
			values[4] = LinearMotor.measuredVoltage;
			values[5] = LinearMotor.measuredCurrent;
			for (uint8_t i=0; i<6; i++){
				if(show.lastValues[i] != values[i]){
				update = true;
    1998:	81 e0       	ldi	r24, 0x01	; 1
				break;
				}
			}
			for (uint8_t i=0; i<6; i++){
    199a:	90 e0       	ldi	r25, 0x00	; 0
    199c:	16 c0       	rjmp	.+44     	; 0x19ca <screenUpdater+0x1c8>
				show.lastValues[i] = values[i];
    199e:	29 2f       	mov	r18, r25
    19a0:	30 e0       	ldi	r19, 0x00	; 0
    19a2:	f9 01       	movw	r30, r18
    19a4:	ee 0f       	add	r30, r30
    19a6:	ff 1f       	adc	r31, r31
    19a8:	a1 e0       	ldi	r26, 0x01	; 1
    19aa:	b0 e0       	ldi	r27, 0x00	; 0
    19ac:	ac 0f       	add	r26, r28
    19ae:	bd 1f       	adc	r27, r29
    19b0:	ea 0f       	add	r30, r26
    19b2:	fb 1f       	adc	r31, r27
    19b4:	40 81       	ld	r20, Z
    19b6:	51 81       	ldd	r21, Z+1	; 0x01
    19b8:	f9 01       	movw	r30, r18
    19ba:	31 96       	adiw	r30, 0x01	; 1
    19bc:	ee 0f       	add	r30, r30
    19be:	ff 1f       	adc	r31, r31
    19c0:	ea 50       	subi	r30, 0x0A	; 10
    19c2:	fa 49       	sbci	r31, 0x9A	; 154
    19c4:	40 83       	st	Z, r20
    19c6:	51 83       	std	Z+1, r21	; 0x01
				if(show.lastValues[i] != values[i]){
				update = true;
				break;
				}
			}
			for (uint8_t i=0; i<6; i++){
    19c8:	9f 5f       	subi	r25, 0xFF	; 255
    19ca:	96 30       	cpi	r25, 0x06	; 6
    19cc:	40 f3       	brcs	.-48     	; 0x199e <screenUpdater+0x19c>
    19ce:	01 c0       	rjmp	.+2      	; 0x19d2 <screenUpdater+0x1d0>
#include "Settings.h"
#include "windowsVar.h"

bool screenUpdater(uint8_t window){ //update window data if any changes only
	uint16_t values[MAX_VARS]={0};
	bool update = false;
    19d0:	80 e0       	ldi	r24, 0x00	; 0
			for (uint8_t i=0; i<6; i++){
				show.lastValues[i] = values[i];
			}
		break;
	}
	show.lastWindow = window;
    19d2:	10 93 f7 65 	sts	0x65F7, r17	; 0x8065f7 <show+0x1>
	return update;
}
    19d6:	68 96       	adiw	r28, 0x18	; 24
    19d8:	cd bf       	out	0x3d, r28	; 61
    19da:	de bf       	out	0x3e, r29	; 62
    19dc:	df 91       	pop	r29
    19de:	cf 91       	pop	r28
    19e0:	1f 91       	pop	r17
    19e2:	08 95       	ret

000019e4 <windows>:

void windows() {
    19e4:	ef 92       	push	r14
    19e6:	ff 92       	push	r15
    19e8:	0f 93       	push	r16
    19ea:	1f 93       	push	r17
    19ec:	cf 93       	push	r28
    19ee:	df 93       	push	r29

	ReadJoystickValues(); //Joystick read
    19f0:	0e 94 56 06 	call	0xcac	; 0xcac <ReadJoystickValues>

	if(!Joystick.LatchSwitch){//windows changing works if control is set as Auto.
    19f4:	80 91 d1 65 	lds	r24, 0x65D1	; 0x8065d1 <Joystick+0x6>
    19f8:	81 11       	cpse	r24, r1
    19fa:	02 c0       	rjmp	.+4      	; 0x1a00 <windows+0x1c>
		SelectWindow();
    19fc:	0e 94 7c 06 	call	0xcf8	; 0xcf8 <SelectWindow>
	}
	LatchSwitcher();
    1a00:	0e 94 40 06 	call	0xc80	; 0xc80 <LatchSwitcher>
	switch (show.window){
    1a04:	80 91 f6 65 	lds	r24, 0x65F6	; 0x8065f6 <show>
    1a08:	88 23       	and	r24, r24
    1a0a:	21 f0       	breq	.+8      	; 0x1a14 <windows+0x30>
    1a0c:	81 30       	cpi	r24, 0x01	; 1
    1a0e:	09 f4       	brne	.+2      	; 0x1a12 <windows+0x2e>
    1a10:	e5 c0       	rjmp	.+458    	; 0x1bdc <windows+0x1f8>
    1a12:	63 c2       	rjmp	.+1222   	; 0x1eda <windows+0x4f6>
		case 0:
			if(screenUpdater(0)){
    1a14:	80 e0       	ldi	r24, 0x00	; 0
    1a16:	0e 94 01 0c 	call	0x1802	; 0x1802 <screenUpdater>
    1a1a:	88 23       	and	r24, r24
    1a1c:	09 f4       	brne	.+2      	; 0x1a20 <windows+0x3c>
    1a1e:	5d c2       	rjmp	.+1210   	; 0x1eda <windows+0x4f6>
				screen_write_formatted_text("%s", 0, ALIGN_CENTER, Joystick.LatchSwitch ? "Manual mode": " Auto mode ");			
    1a20:	80 91 d1 65 	lds	r24, 0x65D1	; 0x8065d1 <Joystick+0x6>
    1a24:	88 23       	and	r24, r24
    1a26:	19 f0       	breq	.+6      	; 0x1a2e <windows+0x4a>
    1a28:	85 ec       	ldi	r24, 0xC5	; 197
    1a2a:	94 e6       	ldi	r25, 0x64	; 100
    1a2c:	02 c0       	rjmp	.+4      	; 0x1a32 <windows+0x4e>
    1a2e:	81 ed       	ldi	r24, 0xD1	; 209
    1a30:	94 e6       	ldi	r25, 0x64	; 100
    1a32:	9f 93       	push	r25
    1a34:	8f 93       	push	r24
    1a36:	c1 e0       	ldi	r28, 0x01	; 1
    1a38:	cf 93       	push	r28
    1a3a:	1f 92       	push	r1
    1a3c:	8e e0       	ldi	r24, 0x0E	; 14
    1a3e:	95 e6       	ldi	r25, 0x65	; 101
    1a40:	9f 93       	push	r25
    1a42:	8f 93       	push	r24
    1a44:	0e 94 da 09 	call	0x13b4	; 0x13b4 <screen_write_formatted_text>
				screen_write_formatted_text("---------------------", 1, ALIGN_CENTER);
    1a48:	cf 93       	push	r28
    1a4a:	cf 93       	push	r28
    1a4c:	80 ef       	ldi	r24, 0xF0	; 240
    1a4e:	94 e6       	ldi	r25, 0x64	; 100
    1a50:	9f 93       	push	r25
    1a52:	8f 93       	push	r24
    1a54:	0e 94 da 09 	call	0x13b4	; 0x13b4 <screen_write_formatted_text>
				//1. Lost connection error- No data from Weather station (broken line, corosion, hardware fail and so on)
				//2. Bad CRC
				screen_write_formatted_text("W.S: %s %s", 2, ALIGN_LEFT,  WSData.WS_lost_connecton_fault ? "LCE": "   ", WSData.WS_data_fault ? "CRC": "   ");
    1a58:	80 91 ea 65 	lds	r24, 0x65EA	; 0x8065ea <WSData+0xc>
    1a5c:	2d b7       	in	r18, 0x3d	; 61
    1a5e:	3e b7       	in	r19, 0x3e	; 62
    1a60:	26 5f       	subi	r18, 0xF6	; 246
    1a62:	3f 4f       	sbci	r19, 0xFF	; 255
    1a64:	2d bf       	out	0x3d, r18	; 61
    1a66:	3e bf       	out	0x3e, r19	; 62
    1a68:	88 23       	and	r24, r24
    1a6a:	19 f0       	breq	.+6      	; 0x1a72 <windows+0x8e>
    1a6c:	2d ed       	ldi	r18, 0xDD	; 221
    1a6e:	34 e6       	ldi	r19, 0x64	; 100
    1a70:	02 c0       	rjmp	.+4      	; 0x1a76 <windows+0x92>
    1a72:	21 ee       	ldi	r18, 0xE1	; 225
    1a74:	34 e6       	ldi	r19, 0x64	; 100
    1a76:	80 91 e8 65 	lds	r24, 0x65E8	; 0x8065e8 <WSData+0xa>
    1a7a:	88 23       	and	r24, r24
    1a7c:	19 f0       	breq	.+6      	; 0x1a84 <windows+0xa0>
    1a7e:	85 ee       	ldi	r24, 0xE5	; 229
    1a80:	94 e6       	ldi	r25, 0x64	; 100
    1a82:	02 c0       	rjmp	.+4      	; 0x1a88 <windows+0xa4>
    1a84:	81 ee       	ldi	r24, 0xE1	; 225
    1a86:	94 e6       	ldi	r25, 0x64	; 100
    1a88:	3f 93       	push	r19
    1a8a:	2f 93       	push	r18
    1a8c:	9f 93       	push	r25
    1a8e:	8f 93       	push	r24
    1a90:	1f 92       	push	r1
    1a92:	82 e0       	ldi	r24, 0x02	; 2
    1a94:	8f 93       	push	r24
    1a96:	86 e0       	ldi	r24, 0x06	; 6
    1a98:	95 e6       	ldi	r25, 0x65	; 101
    1a9a:	9f 93       	push	r25
    1a9c:	8f 93       	push	r24
    1a9e:	0e 94 da 09 	call	0x13b4	; 0x13b4 <screen_write_formatted_text>
				//1. USATR1 not receiving messages FO_lost_signal_fault meaning FO optic cut or Top controller fault, or onboard Attiny212 fault
				//1a. FO_lost_signal_fault 3 times in row leads to lost connection fault FO_lost_connecton_fault
				//2. Weak signal from FO coses FO_bad_signal_fault (receiving 000.. with good crc). Onboard Attiny212 works good
				//3. Bad CRC returns FO_data_fault											
				screen_write_formatted_text("T.C: %s %s %s", 3, ALIGN_LEFT, SensorData.FO_lost_connecton_fault ? "LCE": "   ", SensorData.FO_bad_signal_fault ? "FOE": "   ", SensorData.FO_data_fault ? "CRC": "   "  );
    1aa2:	80 91 b4 65 	lds	r24, 0x65B4	; 0x8065b4 <__data_end+0x12>
    1aa6:	ad b7       	in	r26, 0x3d	; 61
    1aa8:	be b7       	in	r27, 0x3e	; 62
    1aaa:	18 96       	adiw	r26, 0x08	; 8
    1aac:	ad bf       	out	0x3d, r26	; 61
    1aae:	be bf       	out	0x3e, r27	; 62
    1ab0:	88 23       	and	r24, r24
    1ab2:	19 f0       	breq	.+6      	; 0x1aba <windows+0xd6>
    1ab4:	4d ed       	ldi	r20, 0xDD	; 221
    1ab6:	54 e6       	ldi	r21, 0x64	; 100
    1ab8:	02 c0       	rjmp	.+4      	; 0x1abe <windows+0xda>
    1aba:	41 ee       	ldi	r20, 0xE1	; 225
    1abc:	54 e6       	ldi	r21, 0x64	; 100
    1abe:	80 91 b2 65 	lds	r24, 0x65B2	; 0x8065b2 <__data_end+0x10>
    1ac2:	88 23       	and	r24, r24
    1ac4:	19 f0       	breq	.+6      	; 0x1acc <windows+0xe8>
    1ac6:	29 ee       	ldi	r18, 0xE9	; 233
    1ac8:	34 e6       	ldi	r19, 0x64	; 100
    1aca:	02 c0       	rjmp	.+4      	; 0x1ad0 <windows+0xec>
    1acc:	21 ee       	ldi	r18, 0xE1	; 225
    1ace:	34 e6       	ldi	r19, 0x64	; 100
    1ad0:	80 91 b5 65 	lds	r24, 0x65B5	; 0x8065b5 <__data_end+0x13>
    1ad4:	88 23       	and	r24, r24
    1ad6:	19 f0       	breq	.+6      	; 0x1ade <windows+0xfa>
    1ad8:	85 ee       	ldi	r24, 0xE5	; 229
    1ada:	94 e6       	ldi	r25, 0x64	; 100
    1adc:	02 c0       	rjmp	.+4      	; 0x1ae2 <windows+0xfe>
    1ade:	81 ee       	ldi	r24, 0xE1	; 225
    1ae0:	94 e6       	ldi	r25, 0x64	; 100
    1ae2:	5f 93       	push	r21
    1ae4:	4f 93       	push	r20
    1ae6:	3f 93       	push	r19
    1ae8:	2f 93       	push	r18
    1aea:	9f 93       	push	r25
    1aec:	8f 93       	push	r24
    1aee:	1f 92       	push	r1
    1af0:	83 e0       	ldi	r24, 0x03	; 3
    1af2:	8f 93       	push	r24
    1af4:	81 e1       	ldi	r24, 0x11	; 17
    1af6:	95 e6       	ldi	r25, 0x65	; 101
    1af8:	9f 93       	push	r25
    1afa:	8f 93       	push	r24
    1afc:	0e 94 da 09 	call	0x13b4	; 0x13b4 <screen_write_formatted_text>
				screen_write_formatted_text("---------------------", 4, ALIGN_CENTER);
    1b00:	81 e0       	ldi	r24, 0x01	; 1
    1b02:	8f 93       	push	r24
    1b04:	84 e0       	ldi	r24, 0x04	; 4
    1b06:	8f 93       	push	r24
    1b08:	80 ef       	ldi	r24, 0xF0	; 240
    1b0a:	94 e6       	ldi	r25, 0x64	; 100
    1b0c:	9f 93       	push	r25
    1b0e:	8f 93       	push	r24
    1b10:	0e 94 da 09 	call	0x13b4	; 0x13b4 <screen_write_formatted_text>
				screen_write_formatted_text("Elevation:", 5, ALIGN_LEFT);
    1b14:	1f 92       	push	r1
    1b16:	85 e0       	ldi	r24, 0x05	; 5
    1b18:	8f 93       	push	r24
    1b1a:	8f e1       	ldi	r24, 0x1F	; 31
    1b1c:	95 e6       	ldi	r25, 0x65	; 101
    1b1e:	9f 93       	push	r25
    1b20:	8f 93       	push	r24
    1b22:	0e 94 da 09 	call	0x13b4	; 0x13b4 <screen_write_formatted_text>
				//1. Elevation sensordata and fault FO_elevation_sensor_fault error
				screen_write_formatted_text("%3d/ %3d%s", 5, ALIGN_RIGHT, Target.elevation, SensorData.Elevation, SensorData.FO_elevation_sensor_fault ? "!E": "  ");
    1b26:	80 91 b6 65 	lds	r24, 0x65B6	; 0x8065b6 <__data_end+0x14>
    1b2a:	ed b7       	in	r30, 0x3d	; 61
    1b2c:	fe b7       	in	r31, 0x3e	; 62
    1b2e:	72 96       	adiw	r30, 0x12	; 18
    1b30:	ed bf       	out	0x3d, r30	; 61
    1b32:	fe bf       	out	0x3e, r31	; 62
    1b34:	88 23       	and	r24, r24
    1b36:	19 f0       	breq	.+6      	; 0x1b3e <windows+0x15a>
    1b38:	8d ee       	ldi	r24, 0xED	; 237
    1b3a:	94 e6       	ldi	r25, 0x64	; 100
    1b3c:	02 c0       	rjmp	.+4      	; 0x1b42 <windows+0x15e>
    1b3e:	82 ee       	ldi	r24, 0xE2	; 226
    1b40:	94 e6       	ldi	r25, 0x64	; 100
    1b42:	9f 93       	push	r25
    1b44:	8f 93       	push	r24
    1b46:	c2 ea       	ldi	r28, 0xA2	; 162
    1b48:	d5 e6       	ldi	r29, 0x65	; 101
    1b4a:	89 81       	ldd	r24, Y+1	; 0x01
    1b4c:	8f 93       	push	r24
    1b4e:	88 81       	ld	r24, Y
    1b50:	8f 93       	push	r24
    1b52:	ea e4       	ldi	r30, 0x4A	; 74
    1b54:	f0 e6       	ldi	r31, 0x60	; 96
    1b56:	81 81       	ldd	r24, Z+1	; 0x01
    1b58:	8f 93       	push	r24
    1b5a:	80 81       	ld	r24, Z
    1b5c:	8f 93       	push	r24
    1b5e:	82 e0       	ldi	r24, 0x02	; 2
    1b60:	8f 93       	push	r24
    1b62:	85 e0       	ldi	r24, 0x05	; 5
    1b64:	8f 93       	push	r24
    1b66:	8a e2       	ldi	r24, 0x2A	; 42
    1b68:	95 e6       	ldi	r25, 0x65	; 101
    1b6a:	9f 93       	push	r25
    1b6c:	8f 93       	push	r24
    1b6e:	0e 94 da 09 	call	0x13b4	; 0x13b4 <screen_write_formatted_text>
				screen_write_formatted_text("Azimuth:", 6, ALIGN_LEFT);
    1b72:	1f 92       	push	r1
    1b74:	86 e0       	ldi	r24, 0x06	; 6
    1b76:	8f 93       	push	r24
    1b78:	85 e3       	ldi	r24, 0x35	; 53
    1b7a:	95 e6       	ldi	r25, 0x65	; 101
    1b7c:	9f 93       	push	r25
    1b7e:	8f 93       	push	r24
    1b80:	0e 94 da 09 	call	0x13b4	; 0x13b4 <screen_write_formatted_text>
				//1. Azimuth sensor data and fault FO_azimuth_sensor_fault
				screen_write_formatted_text("%3d/ %3d%s", 6, ALIGN_RIGHT, Target.azimuth, SensorData.Azimuth, SensorData.FO_azimuth_sensor_fault ? "!E": "  ");
    1b84:	8d 89       	ldd	r24, Y+21	; 0x15
    1b86:	2d b7       	in	r18, 0x3d	; 61
    1b88:	3e b7       	in	r19, 0x3e	; 62
    1b8a:	22 5f       	subi	r18, 0xF2	; 242
    1b8c:	3f 4f       	sbci	r19, 0xFF	; 255
    1b8e:	2d bf       	out	0x3d, r18	; 61
    1b90:	3e bf       	out	0x3e, r19	; 62
    1b92:	88 23       	and	r24, r24
    1b94:	19 f0       	breq	.+6      	; 0x1b9c <windows+0x1b8>
    1b96:	8d ee       	ldi	r24, 0xED	; 237
    1b98:	94 e6       	ldi	r25, 0x64	; 100
    1b9a:	02 c0       	rjmp	.+4      	; 0x1ba0 <windows+0x1bc>
    1b9c:	82 ee       	ldi	r24, 0xE2	; 226
    1b9e:	94 e6       	ldi	r25, 0x64	; 100
    1ba0:	9f 93       	push	r25
    1ba2:	8f 93       	push	r24
    1ba4:	e2 ea       	ldi	r30, 0xA2	; 162
    1ba6:	f5 e6       	ldi	r31, 0x65	; 101
    1ba8:	85 81       	ldd	r24, Z+5	; 0x05
    1baa:	8f 93       	push	r24
    1bac:	84 81       	ldd	r24, Z+4	; 0x04
    1bae:	8f 93       	push	r24
    1bb0:	ea e4       	ldi	r30, 0x4A	; 74
    1bb2:	f0 e6       	ldi	r31, 0x60	; 96
    1bb4:	86 81       	ldd	r24, Z+6	; 0x06
    1bb6:	8f 93       	push	r24
    1bb8:	85 81       	ldd	r24, Z+5	; 0x05
    1bba:	8f 93       	push	r24
    1bbc:	82 e0       	ldi	r24, 0x02	; 2
    1bbe:	8f 93       	push	r24
    1bc0:	86 e0       	ldi	r24, 0x06	; 6
    1bc2:	8f 93       	push	r24
    1bc4:	8a e2       	ldi	r24, 0x2A	; 42
    1bc6:	95 e6       	ldi	r25, 0x65	; 101
    1bc8:	9f 93       	push	r25
    1bca:	8f 93       	push	r24
    1bcc:	0e 94 da 09 	call	0x13b4	; 0x13b4 <screen_write_formatted_text>
    1bd0:	8d b7       	in	r24, 0x3d	; 61
    1bd2:	9e b7       	in	r25, 0x3e	; 62
    1bd4:	0a 96       	adiw	r24, 0x0a	; 10
    1bd6:	8d bf       	out	0x3d, r24	; 61
    1bd8:	9e bf       	out	0x3e, r25	; 62
    1bda:	7f c1       	rjmp	.+766    	; 0x1eda <windows+0x4f6>
			}
		break;
		case 1:
			if(screenUpdater(1)){
    1bdc:	81 e0       	ldi	r24, 0x01	; 1
    1bde:	0e 94 01 0c 	call	0x1802	; 0x1802 <screenUpdater>
    1be2:	88 23       	and	r24, r24
    1be4:	09 f4       	brne	.+2      	; 0x1be8 <windows+0x204>
    1be6:	79 c1       	rjmp	.+754    	; 0x1eda <windows+0x4f6>
				//Solar panels electrical information
				screen_write_formatted_text("S.P. Voltage", 0, ALIGN_LEFT);
    1be8:	1f 92       	push	r1
    1bea:	1f 92       	push	r1
    1bec:	8e e3       	ldi	r24, 0x3E	; 62
    1bee:	95 e6       	ldi	r25, 0x65	; 101
    1bf0:	9f 93       	push	r25
    1bf2:	8f 93       	push	r24
    1bf4:	0e 94 da 09 	call	0x13b4	; 0x13b4 <screen_write_formatted_text>
				screen_write_formatted_text("%3d.%01d", 0, ALIGN_RIGHT, SensorData.PVU/10, SensorData.PVU%10);
    1bf8:	c2 ea       	ldi	r28, 0xA2	; 162
    1bfa:	d5 e6       	ldi	r29, 0x65	; 101
    1bfc:	48 85       	ldd	r20, Y+8	; 0x08
    1bfe:	59 85       	ldd	r21, Y+9	; 0x09
    1c00:	9a 01       	movw	r18, r20
    1c02:	ad ec       	ldi	r26, 0xCD	; 205
    1c04:	bc ec       	ldi	r27, 0xCC	; 204
    1c06:	0e 94 65 11 	call	0x22ca	; 0x22ca <__umulhisi3>
    1c0a:	96 95       	lsr	r25
    1c0c:	87 95       	ror	r24
    1c0e:	96 95       	lsr	r25
    1c10:	87 95       	ror	r24
    1c12:	96 95       	lsr	r25
    1c14:	87 95       	ror	r24
    1c16:	9c 01       	movw	r18, r24
    1c18:	22 0f       	add	r18, r18
    1c1a:	33 1f       	adc	r19, r19
    1c1c:	88 0f       	add	r24, r24
    1c1e:	99 1f       	adc	r25, r25
    1c20:	88 0f       	add	r24, r24
    1c22:	99 1f       	adc	r25, r25
    1c24:	88 0f       	add	r24, r24
    1c26:	99 1f       	adc	r25, r25
    1c28:	82 0f       	add	r24, r18
    1c2a:	93 1f       	adc	r25, r19
    1c2c:	da 01       	movw	r26, r20
    1c2e:	a8 1b       	sub	r26, r24
    1c30:	b9 0b       	sbc	r27, r25
    1c32:	cd 01       	movw	r24, r26
    1c34:	9f 93       	push	r25
    1c36:	af 93       	push	r26
    1c38:	9a 01       	movw	r18, r20
    1c3a:	ad ec       	ldi	r26, 0xCD	; 205
    1c3c:	bc ec       	ldi	r27, 0xCC	; 204
    1c3e:	0e 94 65 11 	call	0x22ca	; 0x22ca <__umulhisi3>
    1c42:	96 95       	lsr	r25
    1c44:	87 95       	ror	r24
    1c46:	96 95       	lsr	r25
    1c48:	87 95       	ror	r24
    1c4a:	96 95       	lsr	r25
    1c4c:	87 95       	ror	r24
    1c4e:	9f 93       	push	r25
    1c50:	8f 93       	push	r24
    1c52:	82 e0       	ldi	r24, 0x02	; 2
    1c54:	8f 93       	push	r24
    1c56:	1f 92       	push	r1
    1c58:	8b e4       	ldi	r24, 0x4B	; 75
    1c5a:	95 e6       	ldi	r25, 0x65	; 101
    1c5c:	9f 93       	push	r25
    1c5e:	8f 93       	push	r24
    1c60:	0e 94 da 09 	call	0x13b4	; 0x13b4 <screen_write_formatted_text>
				screen_write_formatted_text("S.P Current:", 1, ALIGN_LEFT);
    1c64:	1f 92       	push	r1
    1c66:	81 e0       	ldi	r24, 0x01	; 1
    1c68:	8f 93       	push	r24
    1c6a:	84 e5       	ldi	r24, 0x54	; 84
    1c6c:	95 e6       	ldi	r25, 0x65	; 101
    1c6e:	9f 93       	push	r25
    1c70:	8f 93       	push	r24
    1c72:	0e 94 da 09 	call	0x13b4	; 0x13b4 <screen_write_formatted_text>
				screen_write_formatted_text("%3d.%02d", 1, ALIGN_RIGHT, SensorData.PVI/100, abs(SensorData.PVI%100));
    1c76:	4a 85       	ldd	r20, Y+10	; 0x0a
    1c78:	5b 85       	ldd	r21, Y+11	; 0x0b
    1c7a:	9a 01       	movw	r18, r20
    1c7c:	36 95       	lsr	r19
    1c7e:	27 95       	ror	r18
    1c80:	36 95       	lsr	r19
    1c82:	27 95       	ror	r18
    1c84:	ab e7       	ldi	r26, 0x7B	; 123
    1c86:	b4 e1       	ldi	r27, 0x14	; 20
    1c88:	0e 94 65 11 	call	0x22ca	; 0x22ca <__umulhisi3>
    1c8c:	96 95       	lsr	r25
    1c8e:	87 95       	ror	r24
    1c90:	64 e6       	ldi	r22, 0x64	; 100
    1c92:	68 9f       	mul	r22, r24
    1c94:	90 01       	movw	r18, r0
    1c96:	69 9f       	mul	r22, r25
    1c98:	30 0d       	add	r19, r0
    1c9a:	11 24       	eor	r1, r1
    1c9c:	ca 01       	movw	r24, r20
    1c9e:	82 1b       	sub	r24, r18
    1ca0:	93 0b       	sbc	r25, r19
    1ca2:	9c 01       	movw	r18, r24
    1ca4:	22 f4       	brpl	.+8      	; 0x1cae <windows+0x2ca>
    1ca6:	22 27       	eor	r18, r18
    1ca8:	33 27       	eor	r19, r19
    1caa:	28 1b       	sub	r18, r24
    1cac:	39 0b       	sbc	r19, r25
    1cae:	3f 93       	push	r19
    1cb0:	2f 93       	push	r18
    1cb2:	9a 01       	movw	r18, r20
    1cb4:	36 95       	lsr	r19
    1cb6:	27 95       	ror	r18
    1cb8:	36 95       	lsr	r19
    1cba:	27 95       	ror	r18
    1cbc:	ab e7       	ldi	r26, 0x7B	; 123
    1cbe:	b4 e1       	ldi	r27, 0x14	; 20
    1cc0:	0e 94 65 11 	call	0x22ca	; 0x22ca <__umulhisi3>
    1cc4:	96 95       	lsr	r25
    1cc6:	87 95       	ror	r24
    1cc8:	9f 93       	push	r25
    1cca:	8f 93       	push	r24
    1ccc:	c2 e0       	ldi	r28, 0x02	; 2
    1cce:	cf 93       	push	r28
    1cd0:	d1 e0       	ldi	r29, 0x01	; 1
    1cd2:	df 93       	push	r29
    1cd4:	81 e6       	ldi	r24, 0x61	; 97
    1cd6:	95 e6       	ldi	r25, 0x65	; 101
    1cd8:	9f 93       	push	r25
    1cda:	8f 93       	push	r24
    1cdc:	0e 94 da 09 	call	0x13b4	; 0x13b4 <screen_write_formatted_text>
				screen_write_formatted_text("---------------------", 2, ALIGN_CENTER);
    1ce0:	df 93       	push	r29
    1ce2:	cf 93       	push	r28
    1ce4:	80 ef       	ldi	r24, 0xF0	; 240
    1ce6:	94 e6       	ldi	r25, 0x64	; 100
    1ce8:	9f 93       	push	r25
    1cea:	8f 93       	push	r24
    1cec:	0e 94 da 09 	call	0x13b4	; 0x13b4 <screen_write_formatted_text>
				//Azimuth (Stepper) motor electrical information
				screen_write_formatted_text("St.M. Voltage", 3, ALIGN_LEFT);
    1cf0:	1f 92       	push	r1
    1cf2:	d3 e0       	ldi	r29, 0x03	; 3
    1cf4:	df 93       	push	r29
    1cf6:	8a e6       	ldi	r24, 0x6A	; 106
    1cf8:	95 e6       	ldi	r25, 0x65	; 101
    1cfa:	9f 93       	push	r25
    1cfc:	8f 93       	push	r24
    1cfe:	0e 94 da 09 	call	0x13b4	; 0x13b4 <screen_write_formatted_text>
				screen_write_formatted_text("%3d.%01d", 3, ALIGN_RIGHT, StepperMotor.measuredVoltage/10, StepperMotor.measuredVoltage%10);
    1d02:	0b ee       	ldi	r16, 0xEB	; 235
    1d04:	15 e6       	ldi	r17, 0x65	; 101
    1d06:	f8 01       	movw	r30, r16
    1d08:	45 81       	ldd	r20, Z+5	; 0x05
    1d0a:	56 81       	ldd	r21, Z+6	; 0x06
    1d0c:	2d b7       	in	r18, 0x3d	; 61
    1d0e:	3e b7       	in	r19, 0x3e	; 62
    1d10:	20 5e       	subi	r18, 0xE0	; 224
    1d12:	3f 4f       	sbci	r19, 0xFF	; 255
    1d14:	2d bf       	out	0x3d, r18	; 61
    1d16:	3e bf       	out	0x3e, r19	; 62
    1d18:	9a 01       	movw	r18, r20
    1d1a:	ad ec       	ldi	r26, 0xCD	; 205
    1d1c:	bc ec       	ldi	r27, 0xCC	; 204
    1d1e:	0e 94 65 11 	call	0x22ca	; 0x22ca <__umulhisi3>
    1d22:	96 95       	lsr	r25
    1d24:	87 95       	ror	r24
    1d26:	96 95       	lsr	r25
    1d28:	87 95       	ror	r24
    1d2a:	96 95       	lsr	r25
    1d2c:	87 95       	ror	r24
    1d2e:	9c 01       	movw	r18, r24
    1d30:	22 0f       	add	r18, r18
    1d32:	33 1f       	adc	r19, r19
    1d34:	88 0f       	add	r24, r24
    1d36:	99 1f       	adc	r25, r25
    1d38:	88 0f       	add	r24, r24
    1d3a:	99 1f       	adc	r25, r25
    1d3c:	88 0f       	add	r24, r24
    1d3e:	99 1f       	adc	r25, r25
    1d40:	82 0f       	add	r24, r18
    1d42:	93 1f       	adc	r25, r19
    1d44:	da 01       	movw	r26, r20
    1d46:	a8 1b       	sub	r26, r24
    1d48:	b9 0b       	sbc	r27, r25
    1d4a:	cd 01       	movw	r24, r26
    1d4c:	9f 93       	push	r25
    1d4e:	af 93       	push	r26
    1d50:	9a 01       	movw	r18, r20
    1d52:	ad ec       	ldi	r26, 0xCD	; 205
    1d54:	bc ec       	ldi	r27, 0xCC	; 204
    1d56:	0e 94 65 11 	call	0x22ca	; 0x22ca <__umulhisi3>
    1d5a:	96 95       	lsr	r25
    1d5c:	87 95       	ror	r24
    1d5e:	96 95       	lsr	r25
    1d60:	87 95       	ror	r24
    1d62:	96 95       	lsr	r25
    1d64:	87 95       	ror	r24
    1d66:	9f 93       	push	r25
    1d68:	8f 93       	push	r24
    1d6a:	cf 93       	push	r28
    1d6c:	df 93       	push	r29
    1d6e:	8b e4       	ldi	r24, 0x4B	; 75
    1d70:	95 e6       	ldi	r25, 0x65	; 101
    1d72:	9f 93       	push	r25
    1d74:	8f 93       	push	r24
    1d76:	0e 94 da 09 	call	0x13b4	; 0x13b4 <screen_write_formatted_text>
				screen_write_formatted_text("St.M. Current:", 4, ALIGN_LEFT);
    1d7a:	1f 92       	push	r1
    1d7c:	84 e0       	ldi	r24, 0x04	; 4
    1d7e:	8f 93       	push	r24
    1d80:	88 e7       	ldi	r24, 0x78	; 120
    1d82:	95 e6       	ldi	r25, 0x65	; 101
    1d84:	9f 93       	push	r25
    1d86:	8f 93       	push	r24
    1d88:	0e 94 da 09 	call	0x13b4	; 0x13b4 <screen_write_formatted_text>
				screen_write_formatted_text("%3d.%02d", 4, ALIGN_RIGHT, StepperMotor.measuredCurrent/100, abs(StepperMotor.measuredCurrent%100));
    1d8c:	d8 01       	movw	r26, r16
    1d8e:	17 96       	adiw	r26, 0x07	; 7
    1d90:	ed 91       	ld	r30, X+
    1d92:	fc 91       	ld	r31, X
    1d94:	18 97       	sbiw	r26, 0x08	; 8
    1d96:	cf 01       	movw	r24, r30
    1d98:	64 e6       	ldi	r22, 0x64	; 100
    1d9a:	70 e0       	ldi	r23, 0x00	; 0
    1d9c:	0e 94 10 11 	call	0x2220	; 0x2220 <__divmodhi4>
    1da0:	9c 01       	movw	r18, r24
    1da2:	99 23       	and	r25, r25
    1da4:	24 f4       	brge	.+8      	; 0x1dae <windows+0x3ca>
    1da6:	22 27       	eor	r18, r18
    1da8:	33 27       	eor	r19, r19
    1daa:	28 1b       	sub	r18, r24
    1dac:	39 0b       	sbc	r19, r25
    1dae:	3f 93       	push	r19
    1db0:	2f 93       	push	r18
    1db2:	c4 e6       	ldi	r28, 0x64	; 100
    1db4:	d0 e0       	ldi	r29, 0x00	; 0
    1db6:	cf 01       	movw	r24, r30
    1db8:	be 01       	movw	r22, r28
    1dba:	0e 94 10 11 	call	0x2220	; 0x2220 <__divmodhi4>
    1dbe:	7f 93       	push	r23
    1dc0:	6f 93       	push	r22
    1dc2:	68 94       	set
    1dc4:	ee 24       	eor	r14, r14
    1dc6:	e1 f8       	bld	r14, 1
    1dc8:	ef 92       	push	r14
    1dca:	84 e0       	ldi	r24, 0x04	; 4
    1dcc:	8f 93       	push	r24
    1dce:	81 e6       	ldi	r24, 0x61	; 97
    1dd0:	95 e6       	ldi	r25, 0x65	; 101
    1dd2:	9f 93       	push	r25
    1dd4:	8f 93       	push	r24
    1dd6:	0e 94 da 09 	call	0x13b4	; 0x13b4 <screen_write_formatted_text>
				screen_write_formatted_text("---------------------", 5, ALIGN_CENTER);
    1dda:	81 e0       	ldi	r24, 0x01	; 1
    1ddc:	8f 93       	push	r24
    1dde:	85 e0       	ldi	r24, 0x05	; 5
    1de0:	8f 93       	push	r24
    1de2:	80 ef       	ldi	r24, 0xF0	; 240
    1de4:	94 e6       	ldi	r25, 0x64	; 100
    1de6:	9f 93       	push	r25
    1de8:	8f 93       	push	r24
    1dea:	0e 94 da 09 	call	0x13b4	; 0x13b4 <screen_write_formatted_text>
				//Elevation (Linear) motor electical information
				screen_write_formatted_text("L.M. Voltage", 6, ALIGN_LEFT);
    1dee:	1f 92       	push	r1
    1df0:	0f 2e       	mov	r0, r31
    1df2:	f6 e0       	ldi	r31, 0x06	; 6
    1df4:	ff 2e       	mov	r15, r31
    1df6:	f0 2d       	mov	r31, r0
    1df8:	ff 92       	push	r15
    1dfa:	87 e8       	ldi	r24, 0x87	; 135
    1dfc:	95 e6       	ldi	r25, 0x65	; 101
    1dfe:	9f 93       	push	r25
    1e00:	8f 93       	push	r24
    1e02:	0e 94 da 09 	call	0x13b4	; 0x13b4 <screen_write_formatted_text>
				screen_write_formatted_text("%3d.%01d", 6, ALIGN_RIGHT, LinearMotor.measuredVoltage/10, LinearMotor.measuredVoltage%10);
    1e06:	03 ed       	ldi	r16, 0xD3	; 211
    1e08:	15 e6       	ldi	r17, 0x65	; 101
    1e0a:	f8 01       	movw	r30, r16
    1e0c:	45 81       	ldd	r20, Z+5	; 0x05
    1e0e:	56 81       	ldd	r21, Z+6	; 0x06
    1e10:	9a 01       	movw	r18, r20
    1e12:	ad ec       	ldi	r26, 0xCD	; 205
    1e14:	bc ec       	ldi	r27, 0xCC	; 204
    1e16:	0e 94 65 11 	call	0x22ca	; 0x22ca <__umulhisi3>
    1e1a:	96 95       	lsr	r25
    1e1c:	87 95       	ror	r24
    1e1e:	96 95       	lsr	r25
    1e20:	87 95       	ror	r24
    1e22:	96 95       	lsr	r25
    1e24:	87 95       	ror	r24
    1e26:	9c 01       	movw	r18, r24
    1e28:	22 0f       	add	r18, r18
    1e2a:	33 1f       	adc	r19, r19
    1e2c:	88 0f       	add	r24, r24
    1e2e:	99 1f       	adc	r25, r25
    1e30:	88 0f       	add	r24, r24
    1e32:	99 1f       	adc	r25, r25
    1e34:	88 0f       	add	r24, r24
    1e36:	99 1f       	adc	r25, r25
    1e38:	82 0f       	add	r24, r18
    1e3a:	93 1f       	adc	r25, r19
    1e3c:	9a 01       	movw	r18, r20
    1e3e:	28 1b       	sub	r18, r24
    1e40:	39 0b       	sbc	r19, r25
    1e42:	c9 01       	movw	r24, r18
    1e44:	9f 93       	push	r25
    1e46:	2f 93       	push	r18
    1e48:	9a 01       	movw	r18, r20
    1e4a:	0e 94 65 11 	call	0x22ca	; 0x22ca <__umulhisi3>
    1e4e:	96 95       	lsr	r25
    1e50:	87 95       	ror	r24
    1e52:	96 95       	lsr	r25
    1e54:	87 95       	ror	r24
    1e56:	96 95       	lsr	r25
    1e58:	87 95       	ror	r24
    1e5a:	9f 93       	push	r25
    1e5c:	8f 93       	push	r24
    1e5e:	ef 92       	push	r14
    1e60:	ff 92       	push	r15
    1e62:	8b e4       	ldi	r24, 0x4B	; 75
    1e64:	95 e6       	ldi	r25, 0x65	; 101
    1e66:	9f 93       	push	r25
    1e68:	8f 93       	push	r24
    1e6a:	0e 94 da 09 	call	0x13b4	; 0x13b4 <screen_write_formatted_text>
				screen_write_formatted_text("L.M. Current:", 7, ALIGN_LEFT);
    1e6e:	8d b7       	in	r24, 0x3d	; 61
    1e70:	9e b7       	in	r25, 0x3e	; 62
    1e72:	84 96       	adiw	r24, 0x24	; 36
    1e74:	8d bf       	out	0x3d, r24	; 61
    1e76:	9e bf       	out	0x3e, r25	; 62
    1e78:	1f 92       	push	r1
    1e7a:	87 e0       	ldi	r24, 0x07	; 7
    1e7c:	8f 93       	push	r24
    1e7e:	84 e9       	ldi	r24, 0x94	; 148
    1e80:	95 e6       	ldi	r25, 0x65	; 101
    1e82:	9f 93       	push	r25
    1e84:	8f 93       	push	r24
    1e86:	0e 94 da 09 	call	0x13b4	; 0x13b4 <screen_write_formatted_text>
				screen_write_formatted_text("%3d.%02d", 7, ALIGN_RIGHT, LinearMotor.measuredCurrent/100, abs(LinearMotor.measuredCurrent%100));
    1e8a:	d8 01       	movw	r26, r16
    1e8c:	17 96       	adiw	r26, 0x07	; 7
    1e8e:	ed 91       	ld	r30, X+
    1e90:	fc 91       	ld	r31, X
    1e92:	18 97       	sbiw	r26, 0x08	; 8
    1e94:	cf 01       	movw	r24, r30
    1e96:	be 01       	movw	r22, r28
    1e98:	0e 94 10 11 	call	0x2220	; 0x2220 <__divmodhi4>
    1e9c:	9c 01       	movw	r18, r24
    1e9e:	99 23       	and	r25, r25
    1ea0:	24 f4       	brge	.+8      	; 0x1eaa <windows+0x4c6>
    1ea2:	22 27       	eor	r18, r18
    1ea4:	33 27       	eor	r19, r19
    1ea6:	28 1b       	sub	r18, r24
    1ea8:	39 0b       	sbc	r19, r25
    1eaa:	3f 93       	push	r19
    1eac:	2f 93       	push	r18
    1eae:	cf 01       	movw	r24, r30
    1eb0:	64 e6       	ldi	r22, 0x64	; 100
    1eb2:	70 e0       	ldi	r23, 0x00	; 0
    1eb4:	0e 94 10 11 	call	0x2220	; 0x2220 <__divmodhi4>
    1eb8:	7f 93       	push	r23
    1eba:	6f 93       	push	r22
    1ebc:	82 e0       	ldi	r24, 0x02	; 2
    1ebe:	8f 93       	push	r24
    1ec0:	87 e0       	ldi	r24, 0x07	; 7
    1ec2:	8f 93       	push	r24
    1ec4:	81 e6       	ldi	r24, 0x61	; 97
    1ec6:	95 e6       	ldi	r25, 0x65	; 101
    1ec8:	9f 93       	push	r25
    1eca:	8f 93       	push	r24
    1ecc:	0e 94 da 09 	call	0x13b4	; 0x13b4 <screen_write_formatted_text>
    1ed0:	ed b7       	in	r30, 0x3d	; 61
    1ed2:	fe b7       	in	r31, 0x3e	; 62
    1ed4:	3c 96       	adiw	r30, 0x0c	; 12
    1ed6:	ed bf       	out	0x3d, r30	; 61
    1ed8:	fe bf       	out	0x3e, r31	; 62
			}
		break;
	}
	

    1eda:	df 91       	pop	r29
    1edc:	cf 91       	pop	r28
    1ede:	1f 91       	pop	r17
    1ee0:	0f 91       	pop	r16
    1ee2:	ff 90       	pop	r15
    1ee4:	ef 90       	pop	r14
    1ee6:	08 95       	ret

00001ee8 <__divsf3>:
    1ee8:	0e 94 88 0f 	call	0x1f10	; 0x1f10 <__divsf3x>
    1eec:	0c 94 69 10 	jmp	0x20d2	; 0x20d2 <__fp_round>
    1ef0:	0e 94 62 10 	call	0x20c4	; 0x20c4 <__fp_pscB>
    1ef4:	58 f0       	brcs	.+22     	; 0x1f0c <__divsf3+0x24>
    1ef6:	0e 94 5b 10 	call	0x20b6	; 0x20b6 <__fp_pscA>
    1efa:	40 f0       	brcs	.+16     	; 0x1f0c <__divsf3+0x24>
    1efc:	29 f4       	brne	.+10     	; 0x1f08 <__divsf3+0x20>
    1efe:	5f 3f       	cpi	r21, 0xFF	; 255
    1f00:	29 f0       	breq	.+10     	; 0x1f0c <__divsf3+0x24>
    1f02:	0c 94 52 10 	jmp	0x20a4	; 0x20a4 <__fp_inf>
    1f06:	51 11       	cpse	r21, r1
    1f08:	0c 94 9d 10 	jmp	0x213a	; 0x213a <__fp_szero>
    1f0c:	0c 94 58 10 	jmp	0x20b0	; 0x20b0 <__fp_nan>

00001f10 <__divsf3x>:
    1f10:	0e 94 7a 10 	call	0x20f4	; 0x20f4 <__fp_split3>
    1f14:	68 f3       	brcs	.-38     	; 0x1ef0 <__divsf3+0x8>

00001f16 <__divsf3_pse>:
    1f16:	99 23       	and	r25, r25
    1f18:	b1 f3       	breq	.-20     	; 0x1f06 <__divsf3+0x1e>
    1f1a:	55 23       	and	r21, r21
    1f1c:	91 f3       	breq	.-28     	; 0x1f02 <__divsf3+0x1a>
    1f1e:	95 1b       	sub	r25, r21
    1f20:	55 0b       	sbc	r21, r21
    1f22:	bb 27       	eor	r27, r27
    1f24:	aa 27       	eor	r26, r26
    1f26:	62 17       	cp	r22, r18
    1f28:	73 07       	cpc	r23, r19
    1f2a:	84 07       	cpc	r24, r20
    1f2c:	38 f0       	brcs	.+14     	; 0x1f3c <__divsf3_pse+0x26>
    1f2e:	9f 5f       	subi	r25, 0xFF	; 255
    1f30:	5f 4f       	sbci	r21, 0xFF	; 255
    1f32:	22 0f       	add	r18, r18
    1f34:	33 1f       	adc	r19, r19
    1f36:	44 1f       	adc	r20, r20
    1f38:	aa 1f       	adc	r26, r26
    1f3a:	a9 f3       	breq	.-22     	; 0x1f26 <__divsf3_pse+0x10>
    1f3c:	35 d0       	rcall	.+106    	; 0x1fa8 <__divsf3_pse+0x92>
    1f3e:	0e 2e       	mov	r0, r30
    1f40:	3a f0       	brmi	.+14     	; 0x1f50 <__divsf3_pse+0x3a>
    1f42:	e0 e8       	ldi	r30, 0x80	; 128
    1f44:	32 d0       	rcall	.+100    	; 0x1faa <__divsf3_pse+0x94>
    1f46:	91 50       	subi	r25, 0x01	; 1
    1f48:	50 40       	sbci	r21, 0x00	; 0
    1f4a:	e6 95       	lsr	r30
    1f4c:	00 1c       	adc	r0, r0
    1f4e:	ca f7       	brpl	.-14     	; 0x1f42 <__divsf3_pse+0x2c>
    1f50:	2b d0       	rcall	.+86     	; 0x1fa8 <__divsf3_pse+0x92>
    1f52:	fe 2f       	mov	r31, r30
    1f54:	29 d0       	rcall	.+82     	; 0x1fa8 <__divsf3_pse+0x92>
    1f56:	66 0f       	add	r22, r22
    1f58:	77 1f       	adc	r23, r23
    1f5a:	88 1f       	adc	r24, r24
    1f5c:	bb 1f       	adc	r27, r27
    1f5e:	26 17       	cp	r18, r22
    1f60:	37 07       	cpc	r19, r23
    1f62:	48 07       	cpc	r20, r24
    1f64:	ab 07       	cpc	r26, r27
    1f66:	b0 e8       	ldi	r27, 0x80	; 128
    1f68:	09 f0       	breq	.+2      	; 0x1f6c <__divsf3_pse+0x56>
    1f6a:	bb 0b       	sbc	r27, r27
    1f6c:	80 2d       	mov	r24, r0
    1f6e:	bf 01       	movw	r22, r30
    1f70:	ff 27       	eor	r31, r31
    1f72:	93 58       	subi	r25, 0x83	; 131
    1f74:	5f 4f       	sbci	r21, 0xFF	; 255
    1f76:	3a f0       	brmi	.+14     	; 0x1f86 <__divsf3_pse+0x70>
    1f78:	9e 3f       	cpi	r25, 0xFE	; 254
    1f7a:	51 05       	cpc	r21, r1
    1f7c:	78 f0       	brcs	.+30     	; 0x1f9c <__divsf3_pse+0x86>
    1f7e:	0c 94 52 10 	jmp	0x20a4	; 0x20a4 <__fp_inf>
    1f82:	0c 94 9d 10 	jmp	0x213a	; 0x213a <__fp_szero>
    1f86:	5f 3f       	cpi	r21, 0xFF	; 255
    1f88:	e4 f3       	brlt	.-8      	; 0x1f82 <__divsf3_pse+0x6c>
    1f8a:	98 3e       	cpi	r25, 0xE8	; 232
    1f8c:	d4 f3       	brlt	.-12     	; 0x1f82 <__divsf3_pse+0x6c>
    1f8e:	86 95       	lsr	r24
    1f90:	77 95       	ror	r23
    1f92:	67 95       	ror	r22
    1f94:	b7 95       	ror	r27
    1f96:	f7 95       	ror	r31
    1f98:	9f 5f       	subi	r25, 0xFF	; 255
    1f9a:	c9 f7       	brne	.-14     	; 0x1f8e <__divsf3_pse+0x78>
    1f9c:	88 0f       	add	r24, r24
    1f9e:	91 1d       	adc	r25, r1
    1fa0:	96 95       	lsr	r25
    1fa2:	87 95       	ror	r24
    1fa4:	97 f9       	bld	r25, 7
    1fa6:	08 95       	ret
    1fa8:	e1 e0       	ldi	r30, 0x01	; 1
    1faa:	66 0f       	add	r22, r22
    1fac:	77 1f       	adc	r23, r23
    1fae:	88 1f       	adc	r24, r24
    1fb0:	bb 1f       	adc	r27, r27
    1fb2:	62 17       	cp	r22, r18
    1fb4:	73 07       	cpc	r23, r19
    1fb6:	84 07       	cpc	r24, r20
    1fb8:	ba 07       	cpc	r27, r26
    1fba:	20 f0       	brcs	.+8      	; 0x1fc4 <__divsf3_pse+0xae>
    1fbc:	62 1b       	sub	r22, r18
    1fbe:	73 0b       	sbc	r23, r19
    1fc0:	84 0b       	sbc	r24, r20
    1fc2:	ba 0b       	sbc	r27, r26
    1fc4:	ee 1f       	adc	r30, r30
    1fc6:	88 f7       	brcc	.-30     	; 0x1faa <__divsf3_pse+0x94>
    1fc8:	e0 95       	com	r30
    1fca:	08 95       	ret

00001fcc <__fixunssfsi>:
    1fcc:	0e 94 82 10 	call	0x2104	; 0x2104 <__fp_splitA>
    1fd0:	88 f0       	brcs	.+34     	; 0x1ff4 <__fixunssfsi+0x28>
    1fd2:	9f 57       	subi	r25, 0x7F	; 127
    1fd4:	98 f0       	brcs	.+38     	; 0x1ffc <__fixunssfsi+0x30>
    1fd6:	b9 2f       	mov	r27, r25
    1fd8:	99 27       	eor	r25, r25
    1fda:	b7 51       	subi	r27, 0x17	; 23
    1fdc:	b0 f0       	brcs	.+44     	; 0x200a <__DATA_REGION_LENGTH__+0xa>
    1fde:	e1 f0       	breq	.+56     	; 0x2018 <__DATA_REGION_LENGTH__+0x18>
    1fe0:	66 0f       	add	r22, r22
    1fe2:	77 1f       	adc	r23, r23
    1fe4:	88 1f       	adc	r24, r24
    1fe6:	99 1f       	adc	r25, r25
    1fe8:	1a f0       	brmi	.+6      	; 0x1ff0 <__fixunssfsi+0x24>
    1fea:	ba 95       	dec	r27
    1fec:	c9 f7       	brne	.-14     	; 0x1fe0 <__fixunssfsi+0x14>
    1fee:	14 c0       	rjmp	.+40     	; 0x2018 <__DATA_REGION_LENGTH__+0x18>
    1ff0:	b1 30       	cpi	r27, 0x01	; 1
    1ff2:	91 f0       	breq	.+36     	; 0x2018 <__DATA_REGION_LENGTH__+0x18>
    1ff4:	0e 94 9c 10 	call	0x2138	; 0x2138 <__fp_zero>
    1ff8:	b1 e0       	ldi	r27, 0x01	; 1
    1ffa:	08 95       	ret
    1ffc:	0c 94 9c 10 	jmp	0x2138	; 0x2138 <__fp_zero>
    2000:	67 2f       	mov	r22, r23
    2002:	78 2f       	mov	r23, r24
    2004:	88 27       	eor	r24, r24
    2006:	b8 5f       	subi	r27, 0xF8	; 248
    2008:	39 f0       	breq	.+14     	; 0x2018 <__DATA_REGION_LENGTH__+0x18>
    200a:	b9 3f       	cpi	r27, 0xF9	; 249
    200c:	cc f3       	brlt	.-14     	; 0x2000 <__DATA_REGION_LENGTH__>
    200e:	86 95       	lsr	r24
    2010:	77 95       	ror	r23
    2012:	67 95       	ror	r22
    2014:	b3 95       	inc	r27
    2016:	d9 f7       	brne	.-10     	; 0x200e <__DATA_REGION_LENGTH__+0xe>
    2018:	3e f4       	brtc	.+14     	; 0x2028 <__DATA_REGION_LENGTH__+0x28>
    201a:	90 95       	com	r25
    201c:	80 95       	com	r24
    201e:	70 95       	com	r23
    2020:	61 95       	neg	r22
    2022:	7f 4f       	sbci	r23, 0xFF	; 255
    2024:	8f 4f       	sbci	r24, 0xFF	; 255
    2026:	9f 4f       	sbci	r25, 0xFF	; 255
    2028:	08 95       	ret

0000202a <__floatunsisf>:
    202a:	e8 94       	clt
    202c:	09 c0       	rjmp	.+18     	; 0x2040 <__floatsisf+0x12>

0000202e <__floatsisf>:
    202e:	97 fb       	bst	r25, 7
    2030:	3e f4       	brtc	.+14     	; 0x2040 <__floatsisf+0x12>
    2032:	90 95       	com	r25
    2034:	80 95       	com	r24
    2036:	70 95       	com	r23
    2038:	61 95       	neg	r22
    203a:	7f 4f       	sbci	r23, 0xFF	; 255
    203c:	8f 4f       	sbci	r24, 0xFF	; 255
    203e:	9f 4f       	sbci	r25, 0xFF	; 255
    2040:	99 23       	and	r25, r25
    2042:	a9 f0       	breq	.+42     	; 0x206e <__floatsisf+0x40>
    2044:	f9 2f       	mov	r31, r25
    2046:	96 e9       	ldi	r25, 0x96	; 150
    2048:	bb 27       	eor	r27, r27
    204a:	93 95       	inc	r25
    204c:	f6 95       	lsr	r31
    204e:	87 95       	ror	r24
    2050:	77 95       	ror	r23
    2052:	67 95       	ror	r22
    2054:	b7 95       	ror	r27
    2056:	f1 11       	cpse	r31, r1
    2058:	f8 cf       	rjmp	.-16     	; 0x204a <__floatsisf+0x1c>
    205a:	fa f4       	brpl	.+62     	; 0x209a <__floatsisf+0x6c>
    205c:	bb 0f       	add	r27, r27
    205e:	11 f4       	brne	.+4      	; 0x2064 <__floatsisf+0x36>
    2060:	60 ff       	sbrs	r22, 0
    2062:	1b c0       	rjmp	.+54     	; 0x209a <__floatsisf+0x6c>
    2064:	6f 5f       	subi	r22, 0xFF	; 255
    2066:	7f 4f       	sbci	r23, 0xFF	; 255
    2068:	8f 4f       	sbci	r24, 0xFF	; 255
    206a:	9f 4f       	sbci	r25, 0xFF	; 255
    206c:	16 c0       	rjmp	.+44     	; 0x209a <__floatsisf+0x6c>
    206e:	88 23       	and	r24, r24
    2070:	11 f0       	breq	.+4      	; 0x2076 <__floatsisf+0x48>
    2072:	96 e9       	ldi	r25, 0x96	; 150
    2074:	11 c0       	rjmp	.+34     	; 0x2098 <__floatsisf+0x6a>
    2076:	77 23       	and	r23, r23
    2078:	21 f0       	breq	.+8      	; 0x2082 <__floatsisf+0x54>
    207a:	9e e8       	ldi	r25, 0x8E	; 142
    207c:	87 2f       	mov	r24, r23
    207e:	76 2f       	mov	r23, r22
    2080:	05 c0       	rjmp	.+10     	; 0x208c <__floatsisf+0x5e>
    2082:	66 23       	and	r22, r22
    2084:	71 f0       	breq	.+28     	; 0x20a2 <__floatsisf+0x74>
    2086:	96 e8       	ldi	r25, 0x86	; 134
    2088:	86 2f       	mov	r24, r22
    208a:	70 e0       	ldi	r23, 0x00	; 0
    208c:	60 e0       	ldi	r22, 0x00	; 0
    208e:	2a f0       	brmi	.+10     	; 0x209a <__floatsisf+0x6c>
    2090:	9a 95       	dec	r25
    2092:	66 0f       	add	r22, r22
    2094:	77 1f       	adc	r23, r23
    2096:	88 1f       	adc	r24, r24
    2098:	da f7       	brpl	.-10     	; 0x2090 <__floatsisf+0x62>
    209a:	88 0f       	add	r24, r24
    209c:	96 95       	lsr	r25
    209e:	87 95       	ror	r24
    20a0:	97 f9       	bld	r25, 7
    20a2:	08 95       	ret

000020a4 <__fp_inf>:
    20a4:	97 f9       	bld	r25, 7
    20a6:	9f 67       	ori	r25, 0x7F	; 127
    20a8:	80 e8       	ldi	r24, 0x80	; 128
    20aa:	70 e0       	ldi	r23, 0x00	; 0
    20ac:	60 e0       	ldi	r22, 0x00	; 0
    20ae:	08 95       	ret

000020b0 <__fp_nan>:
    20b0:	9f ef       	ldi	r25, 0xFF	; 255
    20b2:	80 ec       	ldi	r24, 0xC0	; 192
    20b4:	08 95       	ret

000020b6 <__fp_pscA>:
    20b6:	00 24       	eor	r0, r0
    20b8:	0a 94       	dec	r0
    20ba:	16 16       	cp	r1, r22
    20bc:	17 06       	cpc	r1, r23
    20be:	18 06       	cpc	r1, r24
    20c0:	09 06       	cpc	r0, r25
    20c2:	08 95       	ret

000020c4 <__fp_pscB>:
    20c4:	00 24       	eor	r0, r0
    20c6:	0a 94       	dec	r0
    20c8:	12 16       	cp	r1, r18
    20ca:	13 06       	cpc	r1, r19
    20cc:	14 06       	cpc	r1, r20
    20ce:	05 06       	cpc	r0, r21
    20d0:	08 95       	ret

000020d2 <__fp_round>:
    20d2:	09 2e       	mov	r0, r25
    20d4:	03 94       	inc	r0
    20d6:	00 0c       	add	r0, r0
    20d8:	11 f4       	brne	.+4      	; 0x20de <__fp_round+0xc>
    20da:	88 23       	and	r24, r24
    20dc:	52 f0       	brmi	.+20     	; 0x20f2 <__fp_round+0x20>
    20de:	bb 0f       	add	r27, r27
    20e0:	40 f4       	brcc	.+16     	; 0x20f2 <__fp_round+0x20>
    20e2:	bf 2b       	or	r27, r31
    20e4:	11 f4       	brne	.+4      	; 0x20ea <__fp_round+0x18>
    20e6:	60 ff       	sbrs	r22, 0
    20e8:	04 c0       	rjmp	.+8      	; 0x20f2 <__fp_round+0x20>
    20ea:	6f 5f       	subi	r22, 0xFF	; 255
    20ec:	7f 4f       	sbci	r23, 0xFF	; 255
    20ee:	8f 4f       	sbci	r24, 0xFF	; 255
    20f0:	9f 4f       	sbci	r25, 0xFF	; 255
    20f2:	08 95       	ret

000020f4 <__fp_split3>:
    20f4:	57 fd       	sbrc	r21, 7
    20f6:	90 58       	subi	r25, 0x80	; 128
    20f8:	44 0f       	add	r20, r20
    20fa:	55 1f       	adc	r21, r21
    20fc:	59 f0       	breq	.+22     	; 0x2114 <__fp_splitA+0x10>
    20fe:	5f 3f       	cpi	r21, 0xFF	; 255
    2100:	71 f0       	breq	.+28     	; 0x211e <__fp_splitA+0x1a>
    2102:	47 95       	ror	r20

00002104 <__fp_splitA>:
    2104:	88 0f       	add	r24, r24
    2106:	97 fb       	bst	r25, 7
    2108:	99 1f       	adc	r25, r25
    210a:	61 f0       	breq	.+24     	; 0x2124 <__fp_splitA+0x20>
    210c:	9f 3f       	cpi	r25, 0xFF	; 255
    210e:	79 f0       	breq	.+30     	; 0x212e <__fp_splitA+0x2a>
    2110:	87 95       	ror	r24
    2112:	08 95       	ret
    2114:	12 16       	cp	r1, r18
    2116:	13 06       	cpc	r1, r19
    2118:	14 06       	cpc	r1, r20
    211a:	55 1f       	adc	r21, r21
    211c:	f2 cf       	rjmp	.-28     	; 0x2102 <__fp_split3+0xe>
    211e:	46 95       	lsr	r20
    2120:	f1 df       	rcall	.-30     	; 0x2104 <__fp_splitA>
    2122:	08 c0       	rjmp	.+16     	; 0x2134 <__fp_splitA+0x30>
    2124:	16 16       	cp	r1, r22
    2126:	17 06       	cpc	r1, r23
    2128:	18 06       	cpc	r1, r24
    212a:	99 1f       	adc	r25, r25
    212c:	f1 cf       	rjmp	.-30     	; 0x2110 <__fp_splitA+0xc>
    212e:	86 95       	lsr	r24
    2130:	71 05       	cpc	r23, r1
    2132:	61 05       	cpc	r22, r1
    2134:	08 94       	sec
    2136:	08 95       	ret

00002138 <__fp_zero>:
    2138:	e8 94       	clt

0000213a <__fp_szero>:
    213a:	bb 27       	eor	r27, r27
    213c:	66 27       	eor	r22, r22
    213e:	77 27       	eor	r23, r23
    2140:	cb 01       	movw	r24, r22
    2142:	97 f9       	bld	r25, 7
    2144:	08 95       	ret

00002146 <__mulsf3>:
    2146:	0e 94 b6 10 	call	0x216c	; 0x216c <__mulsf3x>
    214a:	0c 94 69 10 	jmp	0x20d2	; 0x20d2 <__fp_round>
    214e:	0e 94 5b 10 	call	0x20b6	; 0x20b6 <__fp_pscA>
    2152:	38 f0       	brcs	.+14     	; 0x2162 <__mulsf3+0x1c>
    2154:	0e 94 62 10 	call	0x20c4	; 0x20c4 <__fp_pscB>
    2158:	20 f0       	brcs	.+8      	; 0x2162 <__mulsf3+0x1c>
    215a:	95 23       	and	r25, r21
    215c:	11 f0       	breq	.+4      	; 0x2162 <__mulsf3+0x1c>
    215e:	0c 94 52 10 	jmp	0x20a4	; 0x20a4 <__fp_inf>
    2162:	0c 94 58 10 	jmp	0x20b0	; 0x20b0 <__fp_nan>
    2166:	11 24       	eor	r1, r1
    2168:	0c 94 9d 10 	jmp	0x213a	; 0x213a <__fp_szero>

0000216c <__mulsf3x>:
    216c:	0e 94 7a 10 	call	0x20f4	; 0x20f4 <__fp_split3>
    2170:	70 f3       	brcs	.-36     	; 0x214e <__mulsf3+0x8>

00002172 <__mulsf3_pse>:
    2172:	95 9f       	mul	r25, r21
    2174:	c1 f3       	breq	.-16     	; 0x2166 <__mulsf3+0x20>
    2176:	95 0f       	add	r25, r21
    2178:	50 e0       	ldi	r21, 0x00	; 0
    217a:	55 1f       	adc	r21, r21
    217c:	62 9f       	mul	r22, r18
    217e:	f0 01       	movw	r30, r0
    2180:	72 9f       	mul	r23, r18
    2182:	bb 27       	eor	r27, r27
    2184:	f0 0d       	add	r31, r0
    2186:	b1 1d       	adc	r27, r1
    2188:	63 9f       	mul	r22, r19
    218a:	aa 27       	eor	r26, r26
    218c:	f0 0d       	add	r31, r0
    218e:	b1 1d       	adc	r27, r1
    2190:	aa 1f       	adc	r26, r26
    2192:	64 9f       	mul	r22, r20
    2194:	66 27       	eor	r22, r22
    2196:	b0 0d       	add	r27, r0
    2198:	a1 1d       	adc	r26, r1
    219a:	66 1f       	adc	r22, r22
    219c:	82 9f       	mul	r24, r18
    219e:	22 27       	eor	r18, r18
    21a0:	b0 0d       	add	r27, r0
    21a2:	a1 1d       	adc	r26, r1
    21a4:	62 1f       	adc	r22, r18
    21a6:	73 9f       	mul	r23, r19
    21a8:	b0 0d       	add	r27, r0
    21aa:	a1 1d       	adc	r26, r1
    21ac:	62 1f       	adc	r22, r18
    21ae:	83 9f       	mul	r24, r19
    21b0:	a0 0d       	add	r26, r0
    21b2:	61 1d       	adc	r22, r1
    21b4:	22 1f       	adc	r18, r18
    21b6:	74 9f       	mul	r23, r20
    21b8:	33 27       	eor	r19, r19
    21ba:	a0 0d       	add	r26, r0
    21bc:	61 1d       	adc	r22, r1
    21be:	23 1f       	adc	r18, r19
    21c0:	84 9f       	mul	r24, r20
    21c2:	60 0d       	add	r22, r0
    21c4:	21 1d       	adc	r18, r1
    21c6:	82 2f       	mov	r24, r18
    21c8:	76 2f       	mov	r23, r22
    21ca:	6a 2f       	mov	r22, r26
    21cc:	11 24       	eor	r1, r1
    21ce:	9f 57       	subi	r25, 0x7F	; 127
    21d0:	50 40       	sbci	r21, 0x00	; 0
    21d2:	9a f0       	brmi	.+38     	; 0x21fa <__mulsf3_pse+0x88>
    21d4:	f1 f0       	breq	.+60     	; 0x2212 <__mulsf3_pse+0xa0>
    21d6:	88 23       	and	r24, r24
    21d8:	4a f0       	brmi	.+18     	; 0x21ec <__mulsf3_pse+0x7a>
    21da:	ee 0f       	add	r30, r30
    21dc:	ff 1f       	adc	r31, r31
    21de:	bb 1f       	adc	r27, r27
    21e0:	66 1f       	adc	r22, r22
    21e2:	77 1f       	adc	r23, r23
    21e4:	88 1f       	adc	r24, r24
    21e6:	91 50       	subi	r25, 0x01	; 1
    21e8:	50 40       	sbci	r21, 0x00	; 0
    21ea:	a9 f7       	brne	.-22     	; 0x21d6 <__mulsf3_pse+0x64>
    21ec:	9e 3f       	cpi	r25, 0xFE	; 254
    21ee:	51 05       	cpc	r21, r1
    21f0:	80 f0       	brcs	.+32     	; 0x2212 <__mulsf3_pse+0xa0>
    21f2:	0c 94 52 10 	jmp	0x20a4	; 0x20a4 <__fp_inf>
    21f6:	0c 94 9d 10 	jmp	0x213a	; 0x213a <__fp_szero>
    21fa:	5f 3f       	cpi	r21, 0xFF	; 255
    21fc:	e4 f3       	brlt	.-8      	; 0x21f6 <__mulsf3_pse+0x84>
    21fe:	98 3e       	cpi	r25, 0xE8	; 232
    2200:	d4 f3       	brlt	.-12     	; 0x21f6 <__mulsf3_pse+0x84>
    2202:	86 95       	lsr	r24
    2204:	77 95       	ror	r23
    2206:	67 95       	ror	r22
    2208:	b7 95       	ror	r27
    220a:	f7 95       	ror	r31
    220c:	e7 95       	ror	r30
    220e:	9f 5f       	subi	r25, 0xFF	; 255
    2210:	c1 f7       	brne	.-16     	; 0x2202 <__mulsf3_pse+0x90>
    2212:	fe 2b       	or	r31, r30
    2214:	88 0f       	add	r24, r24
    2216:	91 1d       	adc	r25, r1
    2218:	96 95       	lsr	r25
    221a:	87 95       	ror	r24
    221c:	97 f9       	bld	r25, 7
    221e:	08 95       	ret

00002220 <__divmodhi4>:
    2220:	97 fb       	bst	r25, 7
    2222:	07 2e       	mov	r0, r23
    2224:	16 f4       	brtc	.+4      	; 0x222a <__divmodhi4+0xa>
    2226:	00 94       	com	r0
    2228:	07 d0       	rcall	.+14     	; 0x2238 <__divmodhi4_neg1>
    222a:	77 fd       	sbrc	r23, 7
    222c:	09 d0       	rcall	.+18     	; 0x2240 <__divmodhi4_neg2>
    222e:	0e 94 c3 11 	call	0x2386	; 0x2386 <__udivmodhi4>
    2232:	07 fc       	sbrc	r0, 7
    2234:	05 d0       	rcall	.+10     	; 0x2240 <__divmodhi4_neg2>
    2236:	3e f4       	brtc	.+14     	; 0x2246 <__divmodhi4_exit>

00002238 <__divmodhi4_neg1>:
    2238:	90 95       	com	r25
    223a:	81 95       	neg	r24
    223c:	9f 4f       	sbci	r25, 0xFF	; 255
    223e:	08 95       	ret

00002240 <__divmodhi4_neg2>:
    2240:	70 95       	com	r23
    2242:	61 95       	neg	r22
    2244:	7f 4f       	sbci	r23, 0xFF	; 255

00002246 <__divmodhi4_exit>:
    2246:	08 95       	ret

00002248 <__udivmodsi4>:
    2248:	a1 e2       	ldi	r26, 0x21	; 33
    224a:	1a 2e       	mov	r1, r26
    224c:	aa 1b       	sub	r26, r26
    224e:	bb 1b       	sub	r27, r27
    2250:	fd 01       	movw	r30, r26
    2252:	0d c0       	rjmp	.+26     	; 0x226e <__udivmodsi4_ep>

00002254 <__udivmodsi4_loop>:
    2254:	aa 1f       	adc	r26, r26
    2256:	bb 1f       	adc	r27, r27
    2258:	ee 1f       	adc	r30, r30
    225a:	ff 1f       	adc	r31, r31
    225c:	a2 17       	cp	r26, r18
    225e:	b3 07       	cpc	r27, r19
    2260:	e4 07       	cpc	r30, r20
    2262:	f5 07       	cpc	r31, r21
    2264:	20 f0       	brcs	.+8      	; 0x226e <__udivmodsi4_ep>
    2266:	a2 1b       	sub	r26, r18
    2268:	b3 0b       	sbc	r27, r19
    226a:	e4 0b       	sbc	r30, r20
    226c:	f5 0b       	sbc	r31, r21

0000226e <__udivmodsi4_ep>:
    226e:	66 1f       	adc	r22, r22
    2270:	77 1f       	adc	r23, r23
    2272:	88 1f       	adc	r24, r24
    2274:	99 1f       	adc	r25, r25
    2276:	1a 94       	dec	r1
    2278:	69 f7       	brne	.-38     	; 0x2254 <__udivmodsi4_loop>
    227a:	60 95       	com	r22
    227c:	70 95       	com	r23
    227e:	80 95       	com	r24
    2280:	90 95       	com	r25
    2282:	9b 01       	movw	r18, r22
    2284:	ac 01       	movw	r20, r24
    2286:	bd 01       	movw	r22, r26
    2288:	cf 01       	movw	r24, r30
    228a:	08 95       	ret

0000228c <__divmodsi4>:
    228c:	05 2e       	mov	r0, r21
    228e:	97 fb       	bst	r25, 7
    2290:	1e f4       	brtc	.+6      	; 0x2298 <__divmodsi4+0xc>
    2292:	00 94       	com	r0
    2294:	0e 94 5d 11 	call	0x22ba	; 0x22ba <__negsi2>
    2298:	57 fd       	sbrc	r21, 7
    229a:	07 d0       	rcall	.+14     	; 0x22aa <__divmodsi4_neg2>
    229c:	0e 94 24 11 	call	0x2248	; 0x2248 <__udivmodsi4>
    22a0:	07 fc       	sbrc	r0, 7
    22a2:	03 d0       	rcall	.+6      	; 0x22aa <__divmodsi4_neg2>
    22a4:	4e f4       	brtc	.+18     	; 0x22b8 <__divmodsi4_exit>
    22a6:	0c 94 5d 11 	jmp	0x22ba	; 0x22ba <__negsi2>

000022aa <__divmodsi4_neg2>:
    22aa:	50 95       	com	r21
    22ac:	40 95       	com	r20
    22ae:	30 95       	com	r19
    22b0:	21 95       	neg	r18
    22b2:	3f 4f       	sbci	r19, 0xFF	; 255
    22b4:	4f 4f       	sbci	r20, 0xFF	; 255
    22b6:	5f 4f       	sbci	r21, 0xFF	; 255

000022b8 <__divmodsi4_exit>:
    22b8:	08 95       	ret

000022ba <__negsi2>:
    22ba:	90 95       	com	r25
    22bc:	80 95       	com	r24
    22be:	70 95       	com	r23
    22c0:	61 95       	neg	r22
    22c2:	7f 4f       	sbci	r23, 0xFF	; 255
    22c4:	8f 4f       	sbci	r24, 0xFF	; 255
    22c6:	9f 4f       	sbci	r25, 0xFF	; 255
    22c8:	08 95       	ret

000022ca <__umulhisi3>:
    22ca:	a2 9f       	mul	r26, r18
    22cc:	b0 01       	movw	r22, r0
    22ce:	b3 9f       	mul	r27, r19
    22d0:	c0 01       	movw	r24, r0
    22d2:	a3 9f       	mul	r26, r19
    22d4:	70 0d       	add	r23, r0
    22d6:	81 1d       	adc	r24, r1
    22d8:	11 24       	eor	r1, r1
    22da:	91 1d       	adc	r25, r1
    22dc:	b2 9f       	mul	r27, r18
    22de:	70 0d       	add	r23, r0
    22e0:	81 1d       	adc	r24, r1
    22e2:	11 24       	eor	r1, r1
    22e4:	91 1d       	adc	r25, r1
    22e6:	08 95       	ret

000022e8 <__ashldi3>:
    22e8:	0f 93       	push	r16
    22ea:	08 30       	cpi	r16, 0x08	; 8
    22ec:	90 f0       	brcs	.+36     	; 0x2312 <__ashldi3+0x2a>
    22ee:	98 2f       	mov	r25, r24
    22f0:	87 2f       	mov	r24, r23
    22f2:	76 2f       	mov	r23, r22
    22f4:	65 2f       	mov	r22, r21
    22f6:	54 2f       	mov	r21, r20
    22f8:	43 2f       	mov	r20, r19
    22fa:	32 2f       	mov	r19, r18
    22fc:	22 27       	eor	r18, r18
    22fe:	08 50       	subi	r16, 0x08	; 8
    2300:	f4 cf       	rjmp	.-24     	; 0x22ea <__ashldi3+0x2>
    2302:	22 0f       	add	r18, r18
    2304:	33 1f       	adc	r19, r19
    2306:	44 1f       	adc	r20, r20
    2308:	55 1f       	adc	r21, r21
    230a:	66 1f       	adc	r22, r22
    230c:	77 1f       	adc	r23, r23
    230e:	88 1f       	adc	r24, r24
    2310:	99 1f       	adc	r25, r25
    2312:	0a 95       	dec	r16
    2314:	b2 f7       	brpl	.-20     	; 0x2302 <__ashldi3+0x1a>
    2316:	0f 91       	pop	r16
    2318:	08 95       	ret

0000231a <__ashrdi3>:
    231a:	97 fb       	bst	r25, 7
    231c:	10 f8       	bld	r1, 0

0000231e <__lshrdi3>:
    231e:	16 94       	lsr	r1
    2320:	00 08       	sbc	r0, r0
    2322:	0f 93       	push	r16
    2324:	08 30       	cpi	r16, 0x08	; 8
    2326:	98 f0       	brcs	.+38     	; 0x234e <__lshrdi3+0x30>
    2328:	08 50       	subi	r16, 0x08	; 8
    232a:	23 2f       	mov	r18, r19
    232c:	34 2f       	mov	r19, r20
    232e:	45 2f       	mov	r20, r21
    2330:	56 2f       	mov	r21, r22
    2332:	67 2f       	mov	r22, r23
    2334:	78 2f       	mov	r23, r24
    2336:	89 2f       	mov	r24, r25
    2338:	90 2d       	mov	r25, r0
    233a:	f4 cf       	rjmp	.-24     	; 0x2324 <__lshrdi3+0x6>
    233c:	05 94       	asr	r0
    233e:	97 95       	ror	r25
    2340:	87 95       	ror	r24
    2342:	77 95       	ror	r23
    2344:	67 95       	ror	r22
    2346:	57 95       	ror	r21
    2348:	47 95       	ror	r20
    234a:	37 95       	ror	r19
    234c:	27 95       	ror	r18
    234e:	0a 95       	dec	r16
    2350:	aa f7       	brpl	.-22     	; 0x233c <__lshrdi3+0x1e>
    2352:	0f 91       	pop	r16
    2354:	08 95       	ret

00002356 <__adddi3_s8>:
    2356:	00 24       	eor	r0, r0
    2358:	a7 fd       	sbrc	r26, 7
    235a:	00 94       	com	r0
    235c:	2a 0f       	add	r18, r26
    235e:	30 1d       	adc	r19, r0
    2360:	40 1d       	adc	r20, r0
    2362:	50 1d       	adc	r21, r0
    2364:	60 1d       	adc	r22, r0
    2366:	70 1d       	adc	r23, r0
    2368:	80 1d       	adc	r24, r0
    236a:	90 1d       	adc	r25, r0
    236c:	08 95       	ret

0000236e <__cmpdi2_s8>:
    236e:	00 24       	eor	r0, r0
    2370:	a7 fd       	sbrc	r26, 7
    2372:	00 94       	com	r0
    2374:	2a 17       	cp	r18, r26
    2376:	30 05       	cpc	r19, r0
    2378:	40 05       	cpc	r20, r0
    237a:	50 05       	cpc	r21, r0
    237c:	60 05       	cpc	r22, r0
    237e:	70 05       	cpc	r23, r0
    2380:	80 05       	cpc	r24, r0
    2382:	90 05       	cpc	r25, r0
    2384:	08 95       	ret

00002386 <__udivmodhi4>:
    2386:	aa 1b       	sub	r26, r26
    2388:	bb 1b       	sub	r27, r27
    238a:	51 e1       	ldi	r21, 0x11	; 17
    238c:	07 c0       	rjmp	.+14     	; 0x239c <__udivmodhi4_ep>

0000238e <__udivmodhi4_loop>:
    238e:	aa 1f       	adc	r26, r26
    2390:	bb 1f       	adc	r27, r27
    2392:	a6 17       	cp	r26, r22
    2394:	b7 07       	cpc	r27, r23
    2396:	10 f0       	brcs	.+4      	; 0x239c <__udivmodhi4_ep>
    2398:	a6 1b       	sub	r26, r22
    239a:	b7 0b       	sbc	r27, r23

0000239c <__udivmodhi4_ep>:
    239c:	88 1f       	adc	r24, r24
    239e:	99 1f       	adc	r25, r25
    23a0:	5a 95       	dec	r21
    23a2:	a9 f7       	brne	.-22     	; 0x238e <__udivmodhi4_loop>
    23a4:	80 95       	com	r24
    23a6:	90 95       	com	r25
    23a8:	bc 01       	movw	r22, r24
    23aa:	cd 01       	movw	r24, r26
    23ac:	08 95       	ret

000023ae <strtol>:
    23ae:	a0 e0       	ldi	r26, 0x00	; 0
    23b0:	b0 e0       	ldi	r27, 0x00	; 0
    23b2:	ed ed       	ldi	r30, 0xDD	; 221
    23b4:	f1 e1       	ldi	r31, 0x11	; 17
    23b6:	0c 94 0e 16 	jmp	0x2c1c	; 0x2c1c <__prologue_saves__+0x2>
    23ba:	5c 01       	movw	r10, r24
    23bc:	6b 01       	movw	r12, r22
    23be:	7a 01       	movw	r14, r20
    23c0:	61 15       	cp	r22, r1
    23c2:	71 05       	cpc	r23, r1
    23c4:	19 f0       	breq	.+6      	; 0x23cc <strtol+0x1e>
    23c6:	fb 01       	movw	r30, r22
    23c8:	80 83       	st	Z, r24
    23ca:	91 83       	std	Z+1, r25	; 0x01
    23cc:	e1 14       	cp	r14, r1
    23ce:	f1 04       	cpc	r15, r1
    23d0:	29 f0       	breq	.+10     	; 0x23dc <strtol+0x2e>
    23d2:	c7 01       	movw	r24, r14
    23d4:	02 97       	sbiw	r24, 0x02	; 2
    23d6:	83 97       	sbiw	r24, 0x23	; 35
    23d8:	08 f0       	brcs	.+2      	; 0x23dc <strtol+0x2e>
    23da:	e5 c0       	rjmp	.+458    	; 0x25a6 <strtol+0x1f8>
    23dc:	e5 01       	movw	r28, r10
    23de:	21 96       	adiw	r28, 0x01	; 1
    23e0:	f5 01       	movw	r30, r10
    23e2:	10 81       	ld	r17, Z
    23e4:	81 2f       	mov	r24, r17
    23e6:	90 e0       	ldi	r25, 0x00	; 0
    23e8:	0e 94 ed 12 	call	0x25da	; 0x25da <isspace>
    23ec:	89 2b       	or	r24, r25
    23ee:	11 f0       	breq	.+4      	; 0x23f4 <strtol+0x46>
    23f0:	5e 01       	movw	r10, r28
    23f2:	f4 cf       	rjmp	.-24     	; 0x23dc <strtol+0x2e>
    23f4:	1d 32       	cpi	r17, 0x2D	; 45
    23f6:	29 f4       	brne	.+10     	; 0x2402 <strtol+0x54>
    23f8:	21 96       	adiw	r28, 0x01	; 1
    23fa:	f5 01       	movw	r30, r10
    23fc:	11 81       	ldd	r17, Z+1	; 0x01
    23fe:	01 e0       	ldi	r16, 0x01	; 1
    2400:	07 c0       	rjmp	.+14     	; 0x2410 <strtol+0x62>
    2402:	1b 32       	cpi	r17, 0x2B	; 43
    2404:	21 f4       	brne	.+8      	; 0x240e <strtol+0x60>
    2406:	e5 01       	movw	r28, r10
    2408:	22 96       	adiw	r28, 0x02	; 2
    240a:	f5 01       	movw	r30, r10
    240c:	11 81       	ldd	r17, Z+1	; 0x01
    240e:	00 e0       	ldi	r16, 0x00	; 0
    2410:	e1 14       	cp	r14, r1
    2412:	f1 04       	cpc	r15, r1
    2414:	09 f1       	breq	.+66     	; 0x2458 <strtol+0xaa>
    2416:	f0 e1       	ldi	r31, 0x10	; 16
    2418:	ef 16       	cp	r14, r31
    241a:	f1 04       	cpc	r15, r1
    241c:	29 f4       	brne	.+10     	; 0x2428 <strtol+0x7a>
    241e:	3f c0       	rjmp	.+126    	; 0x249e <strtol+0xf0>
    2420:	10 e3       	ldi	r17, 0x30	; 48
    2422:	e1 14       	cp	r14, r1
    2424:	f1 04       	cpc	r15, r1
    2426:	21 f1       	breq	.+72     	; 0x2470 <strtol+0xc2>
    2428:	28 e0       	ldi	r18, 0x08	; 8
    242a:	e2 16       	cp	r14, r18
    242c:	f1 04       	cpc	r15, r1
    242e:	01 f1       	breq	.+64     	; 0x2470 <strtol+0xc2>
    2430:	54 f4       	brge	.+20     	; 0x2446 <strtol+0x98>
    2432:	e2 e0       	ldi	r30, 0x02	; 2
    2434:	ee 16       	cp	r14, r30
    2436:	f1 04       	cpc	r15, r1
    2438:	21 f5       	brne	.+72     	; 0x2482 <strtol+0xd4>
    243a:	81 2c       	mov	r8, r1
    243c:	91 2c       	mov	r9, r1
    243e:	a1 2c       	mov	r10, r1
    2440:	b0 e4       	ldi	r27, 0x40	; 64
    2442:	bb 2e       	mov	r11, r27
    2444:	3e c0       	rjmp	.+124    	; 0x24c2 <strtol+0x114>
    2446:	fa e0       	ldi	r31, 0x0A	; 10
    2448:	ef 16       	cp	r14, r31
    244a:	f1 04       	cpc	r15, r1
    244c:	39 f0       	breq	.+14     	; 0x245c <strtol+0xae>
    244e:	20 e1       	ldi	r18, 0x10	; 16
    2450:	e2 16       	cp	r14, r18
    2452:	f1 04       	cpc	r15, r1
    2454:	b1 f4       	brne	.+44     	; 0x2482 <strtol+0xd4>
    2456:	30 c0       	rjmp	.+96     	; 0x24b8 <strtol+0x10a>
    2458:	10 33       	cpi	r17, 0x30	; 48
    245a:	19 f1       	breq	.+70     	; 0x24a2 <strtol+0xf4>
    245c:	fa e0       	ldi	r31, 0x0A	; 10
    245e:	ef 2e       	mov	r14, r31
    2460:	f1 2c       	mov	r15, r1
    2462:	ac ec       	ldi	r26, 0xCC	; 204
    2464:	8a 2e       	mov	r8, r26
    2466:	98 2c       	mov	r9, r8
    2468:	a8 2c       	mov	r10, r8
    246a:	ac e0       	ldi	r26, 0x0C	; 12
    246c:	ba 2e       	mov	r11, r26
    246e:	29 c0       	rjmp	.+82     	; 0x24c2 <strtol+0x114>
    2470:	78 e0       	ldi	r23, 0x08	; 8
    2472:	e7 2e       	mov	r14, r23
    2474:	f1 2c       	mov	r15, r1
    2476:	81 2c       	mov	r8, r1
    2478:	91 2c       	mov	r9, r1
    247a:	a1 2c       	mov	r10, r1
    247c:	e0 e1       	ldi	r30, 0x10	; 16
    247e:	be 2e       	mov	r11, r30
    2480:	20 c0       	rjmp	.+64     	; 0x24c2 <strtol+0x114>
    2482:	60 e0       	ldi	r22, 0x00	; 0
    2484:	70 e0       	ldi	r23, 0x00	; 0
    2486:	80 e0       	ldi	r24, 0x00	; 0
    2488:	90 e8       	ldi	r25, 0x80	; 128
    248a:	97 01       	movw	r18, r14
    248c:	0f 2c       	mov	r0, r15
    248e:	00 0c       	add	r0, r0
    2490:	44 0b       	sbc	r20, r20
    2492:	55 0b       	sbc	r21, r21
    2494:	0e 94 24 11 	call	0x2248	; 0x2248 <__udivmodsi4>
    2498:	49 01       	movw	r8, r18
    249a:	5a 01       	movw	r10, r20
    249c:	12 c0       	rjmp	.+36     	; 0x24c2 <strtol+0x114>
    249e:	10 33       	cpi	r17, 0x30	; 48
    24a0:	59 f4       	brne	.+22     	; 0x24b8 <strtol+0x10a>
    24a2:	88 81       	ld	r24, Y
    24a4:	8f 7d       	andi	r24, 0xDF	; 223
    24a6:	88 35       	cpi	r24, 0x58	; 88
    24a8:	09 f0       	breq	.+2      	; 0x24ac <strtol+0xfe>
    24aa:	ba cf       	rjmp	.-140    	; 0x2420 <strtol+0x72>
    24ac:	19 81       	ldd	r17, Y+1	; 0x01
    24ae:	22 96       	adiw	r28, 0x02	; 2
    24b0:	02 60       	ori	r16, 0x02	; 2
    24b2:	80 e1       	ldi	r24, 0x10	; 16
    24b4:	e8 2e       	mov	r14, r24
    24b6:	f1 2c       	mov	r15, r1
    24b8:	81 2c       	mov	r8, r1
    24ba:	91 2c       	mov	r9, r1
    24bc:	a1 2c       	mov	r10, r1
    24be:	68 e0       	ldi	r22, 0x08	; 8
    24c0:	b6 2e       	mov	r11, r22
    24c2:	40 e0       	ldi	r20, 0x00	; 0
    24c4:	60 e0       	ldi	r22, 0x00	; 0
    24c6:	70 e0       	ldi	r23, 0x00	; 0
    24c8:	cb 01       	movw	r24, r22
    24ca:	27 01       	movw	r4, r14
    24cc:	0f 2c       	mov	r0, r15
    24ce:	00 0c       	add	r0, r0
    24d0:	66 08       	sbc	r6, r6
    24d2:	77 08       	sbc	r7, r7
    24d4:	fe 01       	movw	r30, r28
    24d6:	50 ed       	ldi	r21, 0xD0	; 208
    24d8:	35 2e       	mov	r3, r21
    24da:	31 0e       	add	r3, r17
    24dc:	29 e0       	ldi	r18, 0x09	; 9
    24de:	23 15       	cp	r18, r3
    24e0:	70 f4       	brcc	.+28     	; 0x24fe <strtol+0x150>
    24e2:	2f eb       	ldi	r18, 0xBF	; 191
    24e4:	21 0f       	add	r18, r17
    24e6:	2a 31       	cpi	r18, 0x1A	; 26
    24e8:	18 f4       	brcc	.+6      	; 0x24f0 <strtol+0x142>
    24ea:	39 ec       	ldi	r19, 0xC9	; 201
    24ec:	33 2e       	mov	r3, r19
    24ee:	06 c0       	rjmp	.+12     	; 0x24fc <strtol+0x14e>
    24f0:	2f e9       	ldi	r18, 0x9F	; 159
    24f2:	21 0f       	add	r18, r17
    24f4:	2a 31       	cpi	r18, 0x1A	; 26
    24f6:	18 f5       	brcc	.+70     	; 0x253e <strtol+0x190>
    24f8:	29 ea       	ldi	r18, 0xA9	; 169
    24fa:	32 2e       	mov	r3, r18
    24fc:	31 0e       	add	r3, r17
    24fe:	23 2d       	mov	r18, r3
    2500:	30 e0       	ldi	r19, 0x00	; 0
    2502:	2e 15       	cp	r18, r14
    2504:	3f 05       	cpc	r19, r15
    2506:	dc f4       	brge	.+54     	; 0x253e <strtol+0x190>
    2508:	47 fd       	sbrc	r20, 7
    250a:	16 c0       	rjmp	.+44     	; 0x2538 <strtol+0x18a>
    250c:	86 16       	cp	r8, r22
    250e:	97 06       	cpc	r9, r23
    2510:	a8 06       	cpc	r10, r24
    2512:	b9 06       	cpc	r11, r25
    2514:	70 f0       	brcs	.+28     	; 0x2532 <strtol+0x184>
    2516:	a3 01       	movw	r20, r6
    2518:	92 01       	movw	r18, r4
    251a:	0e 94 f2 15 	call	0x2be4	; 0x2be4 <__mulsi3>
    251e:	63 0d       	add	r22, r3
    2520:	71 1d       	adc	r23, r1
    2522:	81 1d       	adc	r24, r1
    2524:	91 1d       	adc	r25, r1
    2526:	61 30       	cpi	r22, 0x01	; 1
    2528:	71 05       	cpc	r23, r1
    252a:	81 05       	cpc	r24, r1
    252c:	20 e8       	ldi	r18, 0x80	; 128
    252e:	92 07       	cpc	r25, r18
    2530:	10 f0       	brcs	.+4      	; 0x2536 <strtol+0x188>
    2532:	4f ef       	ldi	r20, 0xFF	; 255
    2534:	01 c0       	rjmp	.+2      	; 0x2538 <strtol+0x18a>
    2536:	41 e0       	ldi	r20, 0x01	; 1
    2538:	21 96       	adiw	r28, 0x01	; 1
    253a:	10 81       	ld	r17, Z
    253c:	cb cf       	rjmp	.-106    	; 0x24d4 <strtol+0x126>
    253e:	20 2f       	mov	r18, r16
    2540:	21 70       	andi	r18, 0x01	; 1
    2542:	c1 14       	cp	r12, r1
    2544:	d1 04       	cpc	r13, r1
    2546:	71 f0       	breq	.+28     	; 0x2564 <strtol+0x1b6>
    2548:	44 23       	and	r20, r20
    254a:	29 f0       	breq	.+10     	; 0x2556 <strtol+0x1a8>
    254c:	21 97       	sbiw	r28, 0x01	; 1
    254e:	f6 01       	movw	r30, r12
    2550:	c0 83       	st	Z, r28
    2552:	d1 83       	std	Z+1, r29	; 0x01
    2554:	07 c0       	rjmp	.+14     	; 0x2564 <strtol+0x1b6>
    2556:	01 ff       	sbrs	r16, 1
    2558:	19 c0       	rjmp	.+50     	; 0x258c <strtol+0x1de>
    255a:	22 97       	sbiw	r28, 0x02	; 2
    255c:	f6 01       	movw	r30, r12
    255e:	c0 83       	st	Z, r28
    2560:	d1 83       	std	Z+1, r29	; 0x01
    2562:	14 c0       	rjmp	.+40     	; 0x258c <strtol+0x1de>
    2564:	47 ff       	sbrs	r20, 7
    2566:	12 c0       	rjmp	.+36     	; 0x258c <strtol+0x1de>
    2568:	22 23       	and	r18, r18
    256a:	29 f0       	breq	.+10     	; 0x2576 <strtol+0x1c8>
    256c:	60 e0       	ldi	r22, 0x00	; 0
    256e:	70 e0       	ldi	r23, 0x00	; 0
    2570:	80 e0       	ldi	r24, 0x00	; 0
    2572:	90 e8       	ldi	r25, 0x80	; 128
    2574:	04 c0       	rjmp	.+8      	; 0x257e <strtol+0x1d0>
    2576:	6f ef       	ldi	r22, 0xFF	; 255
    2578:	7f ef       	ldi	r23, 0xFF	; 255
    257a:	8f ef       	ldi	r24, 0xFF	; 255
    257c:	9f e7       	ldi	r25, 0x7F	; 127
    257e:	22 e2       	ldi	r18, 0x22	; 34
    2580:	30 e0       	ldi	r19, 0x00	; 0
    2582:	20 93 10 66 	sts	0x6610, r18	; 0x806610 <errno>
    2586:	30 93 11 66 	sts	0x6611, r19	; 0x806611 <errno+0x1>
    258a:	09 c0       	rjmp	.+18     	; 0x259e <strtol+0x1f0>
    258c:	22 23       	and	r18, r18
    258e:	81 f0       	breq	.+32     	; 0x25b0 <strtol+0x202>
    2590:	90 95       	com	r25
    2592:	80 95       	com	r24
    2594:	70 95       	com	r23
    2596:	61 95       	neg	r22
    2598:	7f 4f       	sbci	r23, 0xFF	; 255
    259a:	8f 4f       	sbci	r24, 0xFF	; 255
    259c:	9f 4f       	sbci	r25, 0xFF	; 255
    259e:	46 2f       	mov	r20, r22
    25a0:	37 2f       	mov	r19, r23
    25a2:	28 2f       	mov	r18, r24
    25a4:	12 c0       	rjmp	.+36     	; 0x25ca <strtol+0x21c>
    25a6:	40 e0       	ldi	r20, 0x00	; 0
    25a8:	30 e0       	ldi	r19, 0x00	; 0
    25aa:	20 e0       	ldi	r18, 0x00	; 0
    25ac:	90 e0       	ldi	r25, 0x00	; 0
    25ae:	0d c0       	rjmp	.+26     	; 0x25ca <strtol+0x21c>
    25b0:	97 ff       	sbrs	r25, 7
    25b2:	f5 cf       	rjmp	.-22     	; 0x259e <strtol+0x1f0>
    25b4:	82 e2       	ldi	r24, 0x22	; 34
    25b6:	90 e0       	ldi	r25, 0x00	; 0
    25b8:	80 93 10 66 	sts	0x6610, r24	; 0x806610 <errno>
    25bc:	90 93 11 66 	sts	0x6611, r25	; 0x806611 <errno+0x1>
    25c0:	6f ef       	ldi	r22, 0xFF	; 255
    25c2:	7f ef       	ldi	r23, 0xFF	; 255
    25c4:	8f ef       	ldi	r24, 0xFF	; 255
    25c6:	9f e7       	ldi	r25, 0x7F	; 127
    25c8:	ea cf       	rjmp	.-44     	; 0x259e <strtol+0x1f0>
    25ca:	64 2f       	mov	r22, r20
    25cc:	73 2f       	mov	r23, r19
    25ce:	82 2f       	mov	r24, r18
    25d0:	cd b7       	in	r28, 0x3d	; 61
    25d2:	de b7       	in	r29, 0x3e	; 62
    25d4:	e1 e1       	ldi	r30, 0x11	; 17
    25d6:	0c 94 27 16 	jmp	0x2c4e	; 0x2c4e <__epilogue_restores__+0x2>

000025da <isspace>:
    25da:	91 11       	cpse	r25, r1
    25dc:	0c 94 39 15 	jmp	0x2a72	; 0x2a72 <__ctype_isfalse>
    25e0:	80 32       	cpi	r24, 0x20	; 32
    25e2:	19 f0       	breq	.+6      	; 0x25ea <isspace+0x10>
    25e4:	89 50       	subi	r24, 0x09	; 9
    25e6:	85 50       	subi	r24, 0x05	; 5
    25e8:	c8 f7       	brcc	.-14     	; 0x25dc <isspace+0x2>
    25ea:	08 95       	ret

000025ec <memcpy>:
    25ec:	fb 01       	movw	r30, r22
    25ee:	dc 01       	movw	r26, r24
    25f0:	02 c0       	rjmp	.+4      	; 0x25f6 <memcpy+0xa>
    25f2:	01 90       	ld	r0, Z+
    25f4:	0d 92       	st	X+, r0
    25f6:	41 50       	subi	r20, 0x01	; 1
    25f8:	50 40       	sbci	r21, 0x00	; 0
    25fa:	d8 f7       	brcc	.-10     	; 0x25f2 <memcpy+0x6>
    25fc:	08 95       	ret

000025fe <strcmp>:
    25fe:	fb 01       	movw	r30, r22
    2600:	dc 01       	movw	r26, r24
    2602:	8d 91       	ld	r24, X+
    2604:	01 90       	ld	r0, Z+
    2606:	80 19       	sub	r24, r0
    2608:	01 10       	cpse	r0, r1
    260a:	d9 f3       	breq	.-10     	; 0x2602 <strcmp+0x4>
    260c:	99 0b       	sbc	r25, r25
    260e:	08 95       	ret

00002610 <strcpy>:
    2610:	fb 01       	movw	r30, r22
    2612:	dc 01       	movw	r26, r24
    2614:	01 90       	ld	r0, Z+
    2616:	0d 92       	st	X+, r0
    2618:	00 20       	and	r0, r0
    261a:	e1 f7       	brne	.-8      	; 0x2614 <strcpy+0x4>
    261c:	08 95       	ret

0000261e <strncmp>:
    261e:	fb 01       	movw	r30, r22
    2620:	dc 01       	movw	r26, r24
    2622:	41 50       	subi	r20, 0x01	; 1
    2624:	50 40       	sbci	r21, 0x00	; 0
    2626:	30 f0       	brcs	.+12     	; 0x2634 <strncmp+0x16>
    2628:	8d 91       	ld	r24, X+
    262a:	01 90       	ld	r0, Z+
    262c:	80 19       	sub	r24, r0
    262e:	19 f4       	brne	.+6      	; 0x2636 <strncmp+0x18>
    2630:	00 20       	and	r0, r0
    2632:	b9 f7       	brne	.-18     	; 0x2622 <strncmp+0x4>
    2634:	88 1b       	sub	r24, r24
    2636:	99 0b       	sbc	r25, r25
    2638:	08 95       	ret

0000263a <strncpy>:
    263a:	fb 01       	movw	r30, r22
    263c:	dc 01       	movw	r26, r24
    263e:	41 50       	subi	r20, 0x01	; 1
    2640:	50 40       	sbci	r21, 0x00	; 0
    2642:	48 f0       	brcs	.+18     	; 0x2656 <strncpy+0x1c>
    2644:	01 90       	ld	r0, Z+
    2646:	0d 92       	st	X+, r0
    2648:	00 20       	and	r0, r0
    264a:	c9 f7       	brne	.-14     	; 0x263e <strncpy+0x4>
    264c:	01 c0       	rjmp	.+2      	; 0x2650 <strncpy+0x16>
    264e:	1d 92       	st	X+, r1
    2650:	41 50       	subi	r20, 0x01	; 1
    2652:	50 40       	sbci	r21, 0x00	; 0
    2654:	e0 f7       	brcc	.-8      	; 0x264e <strncpy+0x14>
    2656:	08 95       	ret

00002658 <vsnprintf>:
    2658:	ae e0       	ldi	r26, 0x0E	; 14
    265a:	b0 e0       	ldi	r27, 0x00	; 0
    265c:	e2 e3       	ldi	r30, 0x32	; 50
    265e:	f3 e1       	ldi	r31, 0x13	; 19
    2660:	0c 94 1b 16 	jmp	0x2c36	; 0x2c36 <__prologue_saves__+0x1c>
    2664:	8c 01       	movw	r16, r24
    2666:	fa 01       	movw	r30, r20
    2668:	86 e0       	ldi	r24, 0x06	; 6
    266a:	8c 83       	std	Y+4, r24	; 0x04
    266c:	09 83       	std	Y+1, r16	; 0x01
    266e:	1a 83       	std	Y+2, r17	; 0x02
    2670:	77 ff       	sbrs	r23, 7
    2672:	02 c0       	rjmp	.+4      	; 0x2678 <vsnprintf+0x20>
    2674:	60 e0       	ldi	r22, 0x00	; 0
    2676:	70 e8       	ldi	r23, 0x80	; 128
    2678:	cb 01       	movw	r24, r22
    267a:	01 97       	sbiw	r24, 0x01	; 1
    267c:	8d 83       	std	Y+5, r24	; 0x05
    267e:	9e 83       	std	Y+6, r25	; 0x06
    2680:	a9 01       	movw	r20, r18
    2682:	bf 01       	movw	r22, r30
    2684:	ce 01       	movw	r24, r28
    2686:	01 96       	adiw	r24, 0x01	; 1
    2688:	0e 94 58 13 	call	0x26b0	; 0x26b0 <vfprintf>
    268c:	4d 81       	ldd	r20, Y+5	; 0x05
    268e:	5e 81       	ldd	r21, Y+6	; 0x06
    2690:	57 fd       	sbrc	r21, 7
    2692:	0a c0       	rjmp	.+20     	; 0x26a8 <vsnprintf+0x50>
    2694:	2f 81       	ldd	r18, Y+7	; 0x07
    2696:	38 85       	ldd	r19, Y+8	; 0x08
    2698:	42 17       	cp	r20, r18
    269a:	53 07       	cpc	r21, r19
    269c:	0c f4       	brge	.+2      	; 0x26a0 <vsnprintf+0x48>
    269e:	9a 01       	movw	r18, r20
    26a0:	f8 01       	movw	r30, r16
    26a2:	e2 0f       	add	r30, r18
    26a4:	f3 1f       	adc	r31, r19
    26a6:	10 82       	st	Z, r1
    26a8:	2e 96       	adiw	r28, 0x0e	; 14
    26aa:	e4 e0       	ldi	r30, 0x04	; 4
    26ac:	0c 94 34 16 	jmp	0x2c68	; 0x2c68 <__epilogue_restores__+0x1c>

000026b0 <vfprintf>:
    26b0:	ab e0       	ldi	r26, 0x0B	; 11
    26b2:	b0 e0       	ldi	r27, 0x00	; 0
    26b4:	ee e5       	ldi	r30, 0x5E	; 94
    26b6:	f3 e1       	ldi	r31, 0x13	; 19
    26b8:	0c 94 0d 16 	jmp	0x2c1a	; 0x2c1a <__prologue_saves__>
    26bc:	6c 01       	movw	r12, r24
    26be:	7b 01       	movw	r14, r22
    26c0:	8a 01       	movw	r16, r20
    26c2:	fc 01       	movw	r30, r24
    26c4:	16 82       	std	Z+6, r1	; 0x06
    26c6:	17 82       	std	Z+7, r1	; 0x07
    26c8:	83 81       	ldd	r24, Z+3	; 0x03
    26ca:	81 ff       	sbrs	r24, 1
    26cc:	cc c1       	rjmp	.+920    	; 0x2a66 <vfprintf+0x3b6>
    26ce:	ce 01       	movw	r24, r28
    26d0:	01 96       	adiw	r24, 0x01	; 1
    26d2:	3c 01       	movw	r6, r24
    26d4:	f6 01       	movw	r30, r12
    26d6:	93 81       	ldd	r25, Z+3	; 0x03
    26d8:	f7 01       	movw	r30, r14
    26da:	93 fd       	sbrc	r25, 3
    26dc:	85 91       	lpm	r24, Z+
    26de:	93 ff       	sbrs	r25, 3
    26e0:	81 91       	ld	r24, Z+
    26e2:	7f 01       	movw	r14, r30
    26e4:	88 23       	and	r24, r24
    26e6:	09 f4       	brne	.+2      	; 0x26ea <vfprintf+0x3a>
    26e8:	ba c1       	rjmp	.+884    	; 0x2a5e <vfprintf+0x3ae>
    26ea:	85 32       	cpi	r24, 0x25	; 37
    26ec:	39 f4       	brne	.+14     	; 0x26fc <vfprintf+0x4c>
    26ee:	93 fd       	sbrc	r25, 3
    26f0:	85 91       	lpm	r24, Z+
    26f2:	93 ff       	sbrs	r25, 3
    26f4:	81 91       	ld	r24, Z+
    26f6:	7f 01       	movw	r14, r30
    26f8:	85 32       	cpi	r24, 0x25	; 37
    26fa:	29 f4       	brne	.+10     	; 0x2706 <vfprintf+0x56>
    26fc:	b6 01       	movw	r22, r12
    26fe:	90 e0       	ldi	r25, 0x00	; 0
    2700:	0e 94 52 15 	call	0x2aa4	; 0x2aa4 <fputc>
    2704:	e7 cf       	rjmp	.-50     	; 0x26d4 <vfprintf+0x24>
    2706:	91 2c       	mov	r9, r1
    2708:	21 2c       	mov	r2, r1
    270a:	31 2c       	mov	r3, r1
    270c:	ff e1       	ldi	r31, 0x1F	; 31
    270e:	f3 15       	cp	r31, r3
    2710:	d8 f0       	brcs	.+54     	; 0x2748 <vfprintf+0x98>
    2712:	8b 32       	cpi	r24, 0x2B	; 43
    2714:	79 f0       	breq	.+30     	; 0x2734 <vfprintf+0x84>
    2716:	38 f4       	brcc	.+14     	; 0x2726 <vfprintf+0x76>
    2718:	80 32       	cpi	r24, 0x20	; 32
    271a:	79 f0       	breq	.+30     	; 0x273a <vfprintf+0x8a>
    271c:	83 32       	cpi	r24, 0x23	; 35
    271e:	a1 f4       	brne	.+40     	; 0x2748 <vfprintf+0x98>
    2720:	23 2d       	mov	r18, r3
    2722:	20 61       	ori	r18, 0x10	; 16
    2724:	1d c0       	rjmp	.+58     	; 0x2760 <vfprintf+0xb0>
    2726:	8d 32       	cpi	r24, 0x2D	; 45
    2728:	61 f0       	breq	.+24     	; 0x2742 <vfprintf+0x92>
    272a:	80 33       	cpi	r24, 0x30	; 48
    272c:	69 f4       	brne	.+26     	; 0x2748 <vfprintf+0x98>
    272e:	23 2d       	mov	r18, r3
    2730:	21 60       	ori	r18, 0x01	; 1
    2732:	16 c0       	rjmp	.+44     	; 0x2760 <vfprintf+0xb0>
    2734:	83 2d       	mov	r24, r3
    2736:	82 60       	ori	r24, 0x02	; 2
    2738:	38 2e       	mov	r3, r24
    273a:	e3 2d       	mov	r30, r3
    273c:	e4 60       	ori	r30, 0x04	; 4
    273e:	3e 2e       	mov	r3, r30
    2740:	2a c0       	rjmp	.+84     	; 0x2796 <vfprintf+0xe6>
    2742:	f3 2d       	mov	r31, r3
    2744:	f8 60       	ori	r31, 0x08	; 8
    2746:	1d c0       	rjmp	.+58     	; 0x2782 <vfprintf+0xd2>
    2748:	37 fc       	sbrc	r3, 7
    274a:	2d c0       	rjmp	.+90     	; 0x27a6 <vfprintf+0xf6>
    274c:	20 ed       	ldi	r18, 0xD0	; 208
    274e:	28 0f       	add	r18, r24
    2750:	2a 30       	cpi	r18, 0x0A	; 10
    2752:	40 f0       	brcs	.+16     	; 0x2764 <vfprintf+0xb4>
    2754:	8e 32       	cpi	r24, 0x2E	; 46
    2756:	b9 f4       	brne	.+46     	; 0x2786 <vfprintf+0xd6>
    2758:	36 fc       	sbrc	r3, 6
    275a:	81 c1       	rjmp	.+770    	; 0x2a5e <vfprintf+0x3ae>
    275c:	23 2d       	mov	r18, r3
    275e:	20 64       	ori	r18, 0x40	; 64
    2760:	32 2e       	mov	r3, r18
    2762:	19 c0       	rjmp	.+50     	; 0x2796 <vfprintf+0xe6>
    2764:	36 fe       	sbrs	r3, 6
    2766:	06 c0       	rjmp	.+12     	; 0x2774 <vfprintf+0xc4>
    2768:	8a e0       	ldi	r24, 0x0A	; 10
    276a:	98 9e       	mul	r9, r24
    276c:	20 0d       	add	r18, r0
    276e:	11 24       	eor	r1, r1
    2770:	92 2e       	mov	r9, r18
    2772:	11 c0       	rjmp	.+34     	; 0x2796 <vfprintf+0xe6>
    2774:	ea e0       	ldi	r30, 0x0A	; 10
    2776:	2e 9e       	mul	r2, r30
    2778:	20 0d       	add	r18, r0
    277a:	11 24       	eor	r1, r1
    277c:	22 2e       	mov	r2, r18
    277e:	f3 2d       	mov	r31, r3
    2780:	f0 62       	ori	r31, 0x20	; 32
    2782:	3f 2e       	mov	r3, r31
    2784:	08 c0       	rjmp	.+16     	; 0x2796 <vfprintf+0xe6>
    2786:	8c 36       	cpi	r24, 0x6C	; 108
    2788:	21 f4       	brne	.+8      	; 0x2792 <vfprintf+0xe2>
    278a:	83 2d       	mov	r24, r3
    278c:	80 68       	ori	r24, 0x80	; 128
    278e:	38 2e       	mov	r3, r24
    2790:	02 c0       	rjmp	.+4      	; 0x2796 <vfprintf+0xe6>
    2792:	88 36       	cpi	r24, 0x68	; 104
    2794:	41 f4       	brne	.+16     	; 0x27a6 <vfprintf+0xf6>
    2796:	f7 01       	movw	r30, r14
    2798:	93 fd       	sbrc	r25, 3
    279a:	85 91       	lpm	r24, Z+
    279c:	93 ff       	sbrs	r25, 3
    279e:	81 91       	ld	r24, Z+
    27a0:	7f 01       	movw	r14, r30
    27a2:	81 11       	cpse	r24, r1
    27a4:	b3 cf       	rjmp	.-154    	; 0x270c <vfprintf+0x5c>
    27a6:	98 2f       	mov	r25, r24
    27a8:	9f 7d       	andi	r25, 0xDF	; 223
    27aa:	95 54       	subi	r25, 0x45	; 69
    27ac:	93 30       	cpi	r25, 0x03	; 3
    27ae:	28 f4       	brcc	.+10     	; 0x27ba <vfprintf+0x10a>
    27b0:	0c 5f       	subi	r16, 0xFC	; 252
    27b2:	1f 4f       	sbci	r17, 0xFF	; 255
    27b4:	9f e3       	ldi	r25, 0x3F	; 63
    27b6:	99 83       	std	Y+1, r25	; 0x01
    27b8:	0d c0       	rjmp	.+26     	; 0x27d4 <vfprintf+0x124>
    27ba:	83 36       	cpi	r24, 0x63	; 99
    27bc:	31 f0       	breq	.+12     	; 0x27ca <vfprintf+0x11a>
    27be:	83 37       	cpi	r24, 0x73	; 115
    27c0:	71 f0       	breq	.+28     	; 0x27de <vfprintf+0x12e>
    27c2:	83 35       	cpi	r24, 0x53	; 83
    27c4:	09 f0       	breq	.+2      	; 0x27c8 <vfprintf+0x118>
    27c6:	59 c0       	rjmp	.+178    	; 0x287a <vfprintf+0x1ca>
    27c8:	21 c0       	rjmp	.+66     	; 0x280c <vfprintf+0x15c>
    27ca:	f8 01       	movw	r30, r16
    27cc:	80 81       	ld	r24, Z
    27ce:	89 83       	std	Y+1, r24	; 0x01
    27d0:	0e 5f       	subi	r16, 0xFE	; 254
    27d2:	1f 4f       	sbci	r17, 0xFF	; 255
    27d4:	88 24       	eor	r8, r8
    27d6:	83 94       	inc	r8
    27d8:	91 2c       	mov	r9, r1
    27da:	53 01       	movw	r10, r6
    27dc:	13 c0       	rjmp	.+38     	; 0x2804 <vfprintf+0x154>
    27de:	28 01       	movw	r4, r16
    27e0:	f2 e0       	ldi	r31, 0x02	; 2
    27e2:	4f 0e       	add	r4, r31
    27e4:	51 1c       	adc	r5, r1
    27e6:	f8 01       	movw	r30, r16
    27e8:	a0 80       	ld	r10, Z
    27ea:	b1 80       	ldd	r11, Z+1	; 0x01
    27ec:	36 fe       	sbrs	r3, 6
    27ee:	03 c0       	rjmp	.+6      	; 0x27f6 <vfprintf+0x146>
    27f0:	69 2d       	mov	r22, r9
    27f2:	70 e0       	ldi	r23, 0x00	; 0
    27f4:	02 c0       	rjmp	.+4      	; 0x27fa <vfprintf+0x14a>
    27f6:	6f ef       	ldi	r22, 0xFF	; 255
    27f8:	7f ef       	ldi	r23, 0xFF	; 255
    27fa:	c5 01       	movw	r24, r10
    27fc:	0e 94 47 15 	call	0x2a8e	; 0x2a8e <strnlen>
    2800:	4c 01       	movw	r8, r24
    2802:	82 01       	movw	r16, r4
    2804:	f3 2d       	mov	r31, r3
    2806:	ff 77       	andi	r31, 0x7F	; 127
    2808:	3f 2e       	mov	r3, r31
    280a:	16 c0       	rjmp	.+44     	; 0x2838 <vfprintf+0x188>
    280c:	28 01       	movw	r4, r16
    280e:	22 e0       	ldi	r18, 0x02	; 2
    2810:	42 0e       	add	r4, r18
    2812:	51 1c       	adc	r5, r1
    2814:	f8 01       	movw	r30, r16
    2816:	a0 80       	ld	r10, Z
    2818:	b1 80       	ldd	r11, Z+1	; 0x01
    281a:	36 fe       	sbrs	r3, 6
    281c:	03 c0       	rjmp	.+6      	; 0x2824 <vfprintf+0x174>
    281e:	69 2d       	mov	r22, r9
    2820:	70 e0       	ldi	r23, 0x00	; 0
    2822:	02 c0       	rjmp	.+4      	; 0x2828 <vfprintf+0x178>
    2824:	6f ef       	ldi	r22, 0xFF	; 255
    2826:	7f ef       	ldi	r23, 0xFF	; 255
    2828:	c5 01       	movw	r24, r10
    282a:	0e 94 3c 15 	call	0x2a78	; 0x2a78 <strnlen_P>
    282e:	4c 01       	movw	r8, r24
    2830:	f3 2d       	mov	r31, r3
    2832:	f0 68       	ori	r31, 0x80	; 128
    2834:	3f 2e       	mov	r3, r31
    2836:	82 01       	movw	r16, r4
    2838:	33 fc       	sbrc	r3, 3
    283a:	1b c0       	rjmp	.+54     	; 0x2872 <vfprintf+0x1c2>
    283c:	82 2d       	mov	r24, r2
    283e:	90 e0       	ldi	r25, 0x00	; 0
    2840:	88 16       	cp	r8, r24
    2842:	99 06       	cpc	r9, r25
    2844:	b0 f4       	brcc	.+44     	; 0x2872 <vfprintf+0x1c2>
    2846:	b6 01       	movw	r22, r12
    2848:	80 e2       	ldi	r24, 0x20	; 32
    284a:	90 e0       	ldi	r25, 0x00	; 0
    284c:	0e 94 52 15 	call	0x2aa4	; 0x2aa4 <fputc>
    2850:	2a 94       	dec	r2
    2852:	f4 cf       	rjmp	.-24     	; 0x283c <vfprintf+0x18c>
    2854:	f5 01       	movw	r30, r10
    2856:	37 fc       	sbrc	r3, 7
    2858:	85 91       	lpm	r24, Z+
    285a:	37 fe       	sbrs	r3, 7
    285c:	81 91       	ld	r24, Z+
    285e:	5f 01       	movw	r10, r30
    2860:	b6 01       	movw	r22, r12
    2862:	90 e0       	ldi	r25, 0x00	; 0
    2864:	0e 94 52 15 	call	0x2aa4	; 0x2aa4 <fputc>
    2868:	21 10       	cpse	r2, r1
    286a:	2a 94       	dec	r2
    286c:	21 e0       	ldi	r18, 0x01	; 1
    286e:	82 1a       	sub	r8, r18
    2870:	91 08       	sbc	r9, r1
    2872:	81 14       	cp	r8, r1
    2874:	91 04       	cpc	r9, r1
    2876:	71 f7       	brne	.-36     	; 0x2854 <vfprintf+0x1a4>
    2878:	e8 c0       	rjmp	.+464    	; 0x2a4a <vfprintf+0x39a>
    287a:	84 36       	cpi	r24, 0x64	; 100
    287c:	11 f0       	breq	.+4      	; 0x2882 <vfprintf+0x1d2>
    287e:	89 36       	cpi	r24, 0x69	; 105
    2880:	41 f5       	brne	.+80     	; 0x28d2 <vfprintf+0x222>
    2882:	f8 01       	movw	r30, r16
    2884:	37 fe       	sbrs	r3, 7
    2886:	07 c0       	rjmp	.+14     	; 0x2896 <vfprintf+0x1e6>
    2888:	60 81       	ld	r22, Z
    288a:	71 81       	ldd	r23, Z+1	; 0x01
    288c:	82 81       	ldd	r24, Z+2	; 0x02
    288e:	93 81       	ldd	r25, Z+3	; 0x03
    2890:	0c 5f       	subi	r16, 0xFC	; 252
    2892:	1f 4f       	sbci	r17, 0xFF	; 255
    2894:	08 c0       	rjmp	.+16     	; 0x28a6 <vfprintf+0x1f6>
    2896:	60 81       	ld	r22, Z
    2898:	71 81       	ldd	r23, Z+1	; 0x01
    289a:	07 2e       	mov	r0, r23
    289c:	00 0c       	add	r0, r0
    289e:	88 0b       	sbc	r24, r24
    28a0:	99 0b       	sbc	r25, r25
    28a2:	0e 5f       	subi	r16, 0xFE	; 254
    28a4:	1f 4f       	sbci	r17, 0xFF	; 255
    28a6:	f3 2d       	mov	r31, r3
    28a8:	ff 76       	andi	r31, 0x6F	; 111
    28aa:	3f 2e       	mov	r3, r31
    28ac:	97 ff       	sbrs	r25, 7
    28ae:	09 c0       	rjmp	.+18     	; 0x28c2 <vfprintf+0x212>
    28b0:	90 95       	com	r25
    28b2:	80 95       	com	r24
    28b4:	70 95       	com	r23
    28b6:	61 95       	neg	r22
    28b8:	7f 4f       	sbci	r23, 0xFF	; 255
    28ba:	8f 4f       	sbci	r24, 0xFF	; 255
    28bc:	9f 4f       	sbci	r25, 0xFF	; 255
    28be:	f0 68       	ori	r31, 0x80	; 128
    28c0:	3f 2e       	mov	r3, r31
    28c2:	2a e0       	ldi	r18, 0x0A	; 10
    28c4:	30 e0       	ldi	r19, 0x00	; 0
    28c6:	a3 01       	movw	r20, r6
    28c8:	0e 94 8e 15 	call	0x2b1c	; 0x2b1c <__ultoa_invert>
    28cc:	88 2e       	mov	r8, r24
    28ce:	86 18       	sub	r8, r6
    28d0:	45 c0       	rjmp	.+138    	; 0x295c <vfprintf+0x2ac>
    28d2:	85 37       	cpi	r24, 0x75	; 117
    28d4:	31 f4       	brne	.+12     	; 0x28e2 <vfprintf+0x232>
    28d6:	23 2d       	mov	r18, r3
    28d8:	2f 7e       	andi	r18, 0xEF	; 239
    28da:	b2 2e       	mov	r11, r18
    28dc:	2a e0       	ldi	r18, 0x0A	; 10
    28de:	30 e0       	ldi	r19, 0x00	; 0
    28e0:	25 c0       	rjmp	.+74     	; 0x292c <vfprintf+0x27c>
    28e2:	93 2d       	mov	r25, r3
    28e4:	99 7f       	andi	r25, 0xF9	; 249
    28e6:	b9 2e       	mov	r11, r25
    28e8:	8f 36       	cpi	r24, 0x6F	; 111
    28ea:	c1 f0       	breq	.+48     	; 0x291c <vfprintf+0x26c>
    28ec:	18 f4       	brcc	.+6      	; 0x28f4 <vfprintf+0x244>
    28ee:	88 35       	cpi	r24, 0x58	; 88
    28f0:	79 f0       	breq	.+30     	; 0x2910 <vfprintf+0x260>
    28f2:	b5 c0       	rjmp	.+362    	; 0x2a5e <vfprintf+0x3ae>
    28f4:	80 37       	cpi	r24, 0x70	; 112
    28f6:	19 f0       	breq	.+6      	; 0x28fe <vfprintf+0x24e>
    28f8:	88 37       	cpi	r24, 0x78	; 120
    28fa:	21 f0       	breq	.+8      	; 0x2904 <vfprintf+0x254>
    28fc:	b0 c0       	rjmp	.+352    	; 0x2a5e <vfprintf+0x3ae>
    28fe:	e9 2f       	mov	r30, r25
    2900:	e0 61       	ori	r30, 0x10	; 16
    2902:	be 2e       	mov	r11, r30
    2904:	b4 fe       	sbrs	r11, 4
    2906:	0d c0       	rjmp	.+26     	; 0x2922 <vfprintf+0x272>
    2908:	fb 2d       	mov	r31, r11
    290a:	f4 60       	ori	r31, 0x04	; 4
    290c:	bf 2e       	mov	r11, r31
    290e:	09 c0       	rjmp	.+18     	; 0x2922 <vfprintf+0x272>
    2910:	34 fe       	sbrs	r3, 4
    2912:	0a c0       	rjmp	.+20     	; 0x2928 <vfprintf+0x278>
    2914:	29 2f       	mov	r18, r25
    2916:	26 60       	ori	r18, 0x06	; 6
    2918:	b2 2e       	mov	r11, r18
    291a:	06 c0       	rjmp	.+12     	; 0x2928 <vfprintf+0x278>
    291c:	28 e0       	ldi	r18, 0x08	; 8
    291e:	30 e0       	ldi	r19, 0x00	; 0
    2920:	05 c0       	rjmp	.+10     	; 0x292c <vfprintf+0x27c>
    2922:	20 e1       	ldi	r18, 0x10	; 16
    2924:	30 e0       	ldi	r19, 0x00	; 0
    2926:	02 c0       	rjmp	.+4      	; 0x292c <vfprintf+0x27c>
    2928:	20 e1       	ldi	r18, 0x10	; 16
    292a:	32 e0       	ldi	r19, 0x02	; 2
    292c:	f8 01       	movw	r30, r16
    292e:	b7 fe       	sbrs	r11, 7
    2930:	07 c0       	rjmp	.+14     	; 0x2940 <vfprintf+0x290>
    2932:	60 81       	ld	r22, Z
    2934:	71 81       	ldd	r23, Z+1	; 0x01
    2936:	82 81       	ldd	r24, Z+2	; 0x02
    2938:	93 81       	ldd	r25, Z+3	; 0x03
    293a:	0c 5f       	subi	r16, 0xFC	; 252
    293c:	1f 4f       	sbci	r17, 0xFF	; 255
    293e:	06 c0       	rjmp	.+12     	; 0x294c <vfprintf+0x29c>
    2940:	60 81       	ld	r22, Z
    2942:	71 81       	ldd	r23, Z+1	; 0x01
    2944:	80 e0       	ldi	r24, 0x00	; 0
    2946:	90 e0       	ldi	r25, 0x00	; 0
    2948:	0e 5f       	subi	r16, 0xFE	; 254
    294a:	1f 4f       	sbci	r17, 0xFF	; 255
    294c:	a3 01       	movw	r20, r6
    294e:	0e 94 8e 15 	call	0x2b1c	; 0x2b1c <__ultoa_invert>
    2952:	88 2e       	mov	r8, r24
    2954:	86 18       	sub	r8, r6
    2956:	fb 2d       	mov	r31, r11
    2958:	ff 77       	andi	r31, 0x7F	; 127
    295a:	3f 2e       	mov	r3, r31
    295c:	36 fe       	sbrs	r3, 6
    295e:	0d c0       	rjmp	.+26     	; 0x297a <vfprintf+0x2ca>
    2960:	23 2d       	mov	r18, r3
    2962:	2e 7f       	andi	r18, 0xFE	; 254
    2964:	a2 2e       	mov	r10, r18
    2966:	89 14       	cp	r8, r9
    2968:	58 f4       	brcc	.+22     	; 0x2980 <vfprintf+0x2d0>
    296a:	34 fe       	sbrs	r3, 4
    296c:	0b c0       	rjmp	.+22     	; 0x2984 <vfprintf+0x2d4>
    296e:	32 fc       	sbrc	r3, 2
    2970:	09 c0       	rjmp	.+18     	; 0x2984 <vfprintf+0x2d4>
    2972:	83 2d       	mov	r24, r3
    2974:	8e 7e       	andi	r24, 0xEE	; 238
    2976:	a8 2e       	mov	r10, r24
    2978:	05 c0       	rjmp	.+10     	; 0x2984 <vfprintf+0x2d4>
    297a:	b8 2c       	mov	r11, r8
    297c:	a3 2c       	mov	r10, r3
    297e:	03 c0       	rjmp	.+6      	; 0x2986 <vfprintf+0x2d6>
    2980:	b8 2c       	mov	r11, r8
    2982:	01 c0       	rjmp	.+2      	; 0x2986 <vfprintf+0x2d6>
    2984:	b9 2c       	mov	r11, r9
    2986:	a4 fe       	sbrs	r10, 4
    2988:	0f c0       	rjmp	.+30     	; 0x29a8 <vfprintf+0x2f8>
    298a:	fe 01       	movw	r30, r28
    298c:	e8 0d       	add	r30, r8
    298e:	f1 1d       	adc	r31, r1
    2990:	80 81       	ld	r24, Z
    2992:	80 33       	cpi	r24, 0x30	; 48
    2994:	21 f4       	brne	.+8      	; 0x299e <vfprintf+0x2ee>
    2996:	9a 2d       	mov	r25, r10
    2998:	99 7e       	andi	r25, 0xE9	; 233
    299a:	a9 2e       	mov	r10, r25
    299c:	09 c0       	rjmp	.+18     	; 0x29b0 <vfprintf+0x300>
    299e:	a2 fe       	sbrs	r10, 2
    29a0:	06 c0       	rjmp	.+12     	; 0x29ae <vfprintf+0x2fe>
    29a2:	b3 94       	inc	r11
    29a4:	b3 94       	inc	r11
    29a6:	04 c0       	rjmp	.+8      	; 0x29b0 <vfprintf+0x300>
    29a8:	8a 2d       	mov	r24, r10
    29aa:	86 78       	andi	r24, 0x86	; 134
    29ac:	09 f0       	breq	.+2      	; 0x29b0 <vfprintf+0x300>
    29ae:	b3 94       	inc	r11
    29b0:	a3 fc       	sbrc	r10, 3
    29b2:	11 c0       	rjmp	.+34     	; 0x29d6 <vfprintf+0x326>
    29b4:	a0 fe       	sbrs	r10, 0
    29b6:	06 c0       	rjmp	.+12     	; 0x29c4 <vfprintf+0x314>
    29b8:	b2 14       	cp	r11, r2
    29ba:	88 f4       	brcc	.+34     	; 0x29de <vfprintf+0x32e>
    29bc:	28 0c       	add	r2, r8
    29be:	92 2c       	mov	r9, r2
    29c0:	9b 18       	sub	r9, r11
    29c2:	0e c0       	rjmp	.+28     	; 0x29e0 <vfprintf+0x330>
    29c4:	b2 14       	cp	r11, r2
    29c6:	60 f4       	brcc	.+24     	; 0x29e0 <vfprintf+0x330>
    29c8:	b6 01       	movw	r22, r12
    29ca:	80 e2       	ldi	r24, 0x20	; 32
    29cc:	90 e0       	ldi	r25, 0x00	; 0
    29ce:	0e 94 52 15 	call	0x2aa4	; 0x2aa4 <fputc>
    29d2:	b3 94       	inc	r11
    29d4:	f7 cf       	rjmp	.-18     	; 0x29c4 <vfprintf+0x314>
    29d6:	b2 14       	cp	r11, r2
    29d8:	18 f4       	brcc	.+6      	; 0x29e0 <vfprintf+0x330>
    29da:	2b 18       	sub	r2, r11
    29dc:	02 c0       	rjmp	.+4      	; 0x29e2 <vfprintf+0x332>
    29de:	98 2c       	mov	r9, r8
    29e0:	21 2c       	mov	r2, r1
    29e2:	a4 fe       	sbrs	r10, 4
    29e4:	10 c0       	rjmp	.+32     	; 0x2a06 <vfprintf+0x356>
    29e6:	b6 01       	movw	r22, r12
    29e8:	80 e3       	ldi	r24, 0x30	; 48
    29ea:	90 e0       	ldi	r25, 0x00	; 0
    29ec:	0e 94 52 15 	call	0x2aa4	; 0x2aa4 <fputc>
    29f0:	a2 fe       	sbrs	r10, 2
    29f2:	17 c0       	rjmp	.+46     	; 0x2a22 <vfprintf+0x372>
    29f4:	a1 fc       	sbrc	r10, 1
    29f6:	03 c0       	rjmp	.+6      	; 0x29fe <vfprintf+0x34e>
    29f8:	88 e7       	ldi	r24, 0x78	; 120
    29fa:	90 e0       	ldi	r25, 0x00	; 0
    29fc:	02 c0       	rjmp	.+4      	; 0x2a02 <vfprintf+0x352>
    29fe:	88 e5       	ldi	r24, 0x58	; 88
    2a00:	90 e0       	ldi	r25, 0x00	; 0
    2a02:	b6 01       	movw	r22, r12
    2a04:	0c c0       	rjmp	.+24     	; 0x2a1e <vfprintf+0x36e>
    2a06:	8a 2d       	mov	r24, r10
    2a08:	86 78       	andi	r24, 0x86	; 134
    2a0a:	59 f0       	breq	.+22     	; 0x2a22 <vfprintf+0x372>
    2a0c:	a1 fe       	sbrs	r10, 1
    2a0e:	02 c0       	rjmp	.+4      	; 0x2a14 <vfprintf+0x364>
    2a10:	8b e2       	ldi	r24, 0x2B	; 43
    2a12:	01 c0       	rjmp	.+2      	; 0x2a16 <vfprintf+0x366>
    2a14:	80 e2       	ldi	r24, 0x20	; 32
    2a16:	a7 fc       	sbrc	r10, 7
    2a18:	8d e2       	ldi	r24, 0x2D	; 45
    2a1a:	b6 01       	movw	r22, r12
    2a1c:	90 e0       	ldi	r25, 0x00	; 0
    2a1e:	0e 94 52 15 	call	0x2aa4	; 0x2aa4 <fputc>
    2a22:	89 14       	cp	r8, r9
    2a24:	38 f4       	brcc	.+14     	; 0x2a34 <vfprintf+0x384>
    2a26:	b6 01       	movw	r22, r12
    2a28:	80 e3       	ldi	r24, 0x30	; 48
    2a2a:	90 e0       	ldi	r25, 0x00	; 0
    2a2c:	0e 94 52 15 	call	0x2aa4	; 0x2aa4 <fputc>
    2a30:	9a 94       	dec	r9
    2a32:	f7 cf       	rjmp	.-18     	; 0x2a22 <vfprintf+0x372>
    2a34:	8a 94       	dec	r8
    2a36:	f3 01       	movw	r30, r6
    2a38:	e8 0d       	add	r30, r8
    2a3a:	f1 1d       	adc	r31, r1
    2a3c:	80 81       	ld	r24, Z
    2a3e:	b6 01       	movw	r22, r12
    2a40:	90 e0       	ldi	r25, 0x00	; 0
    2a42:	0e 94 52 15 	call	0x2aa4	; 0x2aa4 <fputc>
    2a46:	81 10       	cpse	r8, r1
    2a48:	f5 cf       	rjmp	.-22     	; 0x2a34 <vfprintf+0x384>
    2a4a:	22 20       	and	r2, r2
    2a4c:	09 f4       	brne	.+2      	; 0x2a50 <vfprintf+0x3a0>
    2a4e:	42 ce       	rjmp	.-892    	; 0x26d4 <vfprintf+0x24>
    2a50:	b6 01       	movw	r22, r12
    2a52:	80 e2       	ldi	r24, 0x20	; 32
    2a54:	90 e0       	ldi	r25, 0x00	; 0
    2a56:	0e 94 52 15 	call	0x2aa4	; 0x2aa4 <fputc>
    2a5a:	2a 94       	dec	r2
    2a5c:	f6 cf       	rjmp	.-20     	; 0x2a4a <vfprintf+0x39a>
    2a5e:	f6 01       	movw	r30, r12
    2a60:	86 81       	ldd	r24, Z+6	; 0x06
    2a62:	97 81       	ldd	r25, Z+7	; 0x07
    2a64:	02 c0       	rjmp	.+4      	; 0x2a6a <vfprintf+0x3ba>
    2a66:	8f ef       	ldi	r24, 0xFF	; 255
    2a68:	9f ef       	ldi	r25, 0xFF	; 255
    2a6a:	2b 96       	adiw	r28, 0x0b	; 11
    2a6c:	e2 e1       	ldi	r30, 0x12	; 18
    2a6e:	0c 94 26 16 	jmp	0x2c4c	; 0x2c4c <__epilogue_restores__>

00002a72 <__ctype_isfalse>:
    2a72:	99 27       	eor	r25, r25
    2a74:	88 27       	eor	r24, r24

00002a76 <__ctype_istrue>:
    2a76:	08 95       	ret

00002a78 <strnlen_P>:
    2a78:	fc 01       	movw	r30, r24
    2a7a:	05 90       	lpm	r0, Z+
    2a7c:	61 50       	subi	r22, 0x01	; 1
    2a7e:	70 40       	sbci	r23, 0x00	; 0
    2a80:	01 10       	cpse	r0, r1
    2a82:	d8 f7       	brcc	.-10     	; 0x2a7a <strnlen_P+0x2>
    2a84:	80 95       	com	r24
    2a86:	90 95       	com	r25
    2a88:	8e 0f       	add	r24, r30
    2a8a:	9f 1f       	adc	r25, r31
    2a8c:	08 95       	ret

00002a8e <strnlen>:
    2a8e:	fc 01       	movw	r30, r24
    2a90:	61 50       	subi	r22, 0x01	; 1
    2a92:	70 40       	sbci	r23, 0x00	; 0
    2a94:	01 90       	ld	r0, Z+
    2a96:	01 10       	cpse	r0, r1
    2a98:	d8 f7       	brcc	.-10     	; 0x2a90 <strnlen+0x2>
    2a9a:	80 95       	com	r24
    2a9c:	90 95       	com	r25
    2a9e:	8e 0f       	add	r24, r30
    2aa0:	9f 1f       	adc	r25, r31
    2aa2:	08 95       	ret

00002aa4 <fputc>:
    2aa4:	0f 93       	push	r16
    2aa6:	1f 93       	push	r17
    2aa8:	cf 93       	push	r28
    2aaa:	df 93       	push	r29
    2aac:	fb 01       	movw	r30, r22
    2aae:	23 81       	ldd	r18, Z+3	; 0x03
    2ab0:	21 fd       	sbrc	r18, 1
    2ab2:	03 c0       	rjmp	.+6      	; 0x2aba <fputc+0x16>
    2ab4:	8f ef       	ldi	r24, 0xFF	; 255
    2ab6:	9f ef       	ldi	r25, 0xFF	; 255
    2ab8:	2c c0       	rjmp	.+88     	; 0x2b12 <fputc+0x6e>
    2aba:	22 ff       	sbrs	r18, 2
    2abc:	16 c0       	rjmp	.+44     	; 0x2aea <fputc+0x46>
    2abe:	46 81       	ldd	r20, Z+6	; 0x06
    2ac0:	57 81       	ldd	r21, Z+7	; 0x07
    2ac2:	24 81       	ldd	r18, Z+4	; 0x04
    2ac4:	35 81       	ldd	r19, Z+5	; 0x05
    2ac6:	42 17       	cp	r20, r18
    2ac8:	53 07       	cpc	r21, r19
    2aca:	44 f4       	brge	.+16     	; 0x2adc <fputc+0x38>
    2acc:	a0 81       	ld	r26, Z
    2ace:	b1 81       	ldd	r27, Z+1	; 0x01
    2ad0:	9d 01       	movw	r18, r26
    2ad2:	2f 5f       	subi	r18, 0xFF	; 255
    2ad4:	3f 4f       	sbci	r19, 0xFF	; 255
    2ad6:	20 83       	st	Z, r18
    2ad8:	31 83       	std	Z+1, r19	; 0x01
    2ada:	8c 93       	st	X, r24
    2adc:	26 81       	ldd	r18, Z+6	; 0x06
    2ade:	37 81       	ldd	r19, Z+7	; 0x07
    2ae0:	2f 5f       	subi	r18, 0xFF	; 255
    2ae2:	3f 4f       	sbci	r19, 0xFF	; 255
    2ae4:	26 83       	std	Z+6, r18	; 0x06
    2ae6:	37 83       	std	Z+7, r19	; 0x07
    2ae8:	14 c0       	rjmp	.+40     	; 0x2b12 <fputc+0x6e>
    2aea:	8b 01       	movw	r16, r22
    2aec:	ec 01       	movw	r28, r24
    2aee:	fb 01       	movw	r30, r22
    2af0:	00 84       	ldd	r0, Z+8	; 0x08
    2af2:	f1 85       	ldd	r31, Z+9	; 0x09
    2af4:	e0 2d       	mov	r30, r0
    2af6:	09 95       	icall
    2af8:	89 2b       	or	r24, r25
    2afa:	e1 f6       	brne	.-72     	; 0x2ab4 <fputc+0x10>
    2afc:	d8 01       	movw	r26, r16
    2afe:	16 96       	adiw	r26, 0x06	; 6
    2b00:	8d 91       	ld	r24, X+
    2b02:	9c 91       	ld	r25, X
    2b04:	17 97       	sbiw	r26, 0x07	; 7
    2b06:	01 96       	adiw	r24, 0x01	; 1
    2b08:	16 96       	adiw	r26, 0x06	; 6
    2b0a:	8d 93       	st	X+, r24
    2b0c:	9c 93       	st	X, r25
    2b0e:	17 97       	sbiw	r26, 0x07	; 7
    2b10:	ce 01       	movw	r24, r28
    2b12:	df 91       	pop	r29
    2b14:	cf 91       	pop	r28
    2b16:	1f 91       	pop	r17
    2b18:	0f 91       	pop	r16
    2b1a:	08 95       	ret

00002b1c <__ultoa_invert>:
    2b1c:	fa 01       	movw	r30, r20
    2b1e:	aa 27       	eor	r26, r26
    2b20:	28 30       	cpi	r18, 0x08	; 8
    2b22:	51 f1       	breq	.+84     	; 0x2b78 <__ultoa_invert+0x5c>
    2b24:	20 31       	cpi	r18, 0x10	; 16
    2b26:	81 f1       	breq	.+96     	; 0x2b88 <__ultoa_invert+0x6c>
    2b28:	e8 94       	clt
    2b2a:	6f 93       	push	r22
    2b2c:	6e 7f       	andi	r22, 0xFE	; 254
    2b2e:	6e 5f       	subi	r22, 0xFE	; 254
    2b30:	7f 4f       	sbci	r23, 0xFF	; 255
    2b32:	8f 4f       	sbci	r24, 0xFF	; 255
    2b34:	9f 4f       	sbci	r25, 0xFF	; 255
    2b36:	af 4f       	sbci	r26, 0xFF	; 255
    2b38:	b1 e0       	ldi	r27, 0x01	; 1
    2b3a:	3e d0       	rcall	.+124    	; 0x2bb8 <__ultoa_invert+0x9c>
    2b3c:	b4 e0       	ldi	r27, 0x04	; 4
    2b3e:	3c d0       	rcall	.+120    	; 0x2bb8 <__ultoa_invert+0x9c>
    2b40:	67 0f       	add	r22, r23
    2b42:	78 1f       	adc	r23, r24
    2b44:	89 1f       	adc	r24, r25
    2b46:	9a 1f       	adc	r25, r26
    2b48:	a1 1d       	adc	r26, r1
    2b4a:	68 0f       	add	r22, r24
    2b4c:	79 1f       	adc	r23, r25
    2b4e:	8a 1f       	adc	r24, r26
    2b50:	91 1d       	adc	r25, r1
    2b52:	a1 1d       	adc	r26, r1
    2b54:	6a 0f       	add	r22, r26
    2b56:	71 1d       	adc	r23, r1
    2b58:	81 1d       	adc	r24, r1
    2b5a:	91 1d       	adc	r25, r1
    2b5c:	a1 1d       	adc	r26, r1
    2b5e:	20 d0       	rcall	.+64     	; 0x2ba0 <__ultoa_invert+0x84>
    2b60:	09 f4       	brne	.+2      	; 0x2b64 <__ultoa_invert+0x48>
    2b62:	68 94       	set
    2b64:	3f 91       	pop	r19
    2b66:	2a e0       	ldi	r18, 0x0A	; 10
    2b68:	26 9f       	mul	r18, r22
    2b6a:	11 24       	eor	r1, r1
    2b6c:	30 19       	sub	r19, r0
    2b6e:	30 5d       	subi	r19, 0xD0	; 208
    2b70:	31 93       	st	Z+, r19
    2b72:	de f6       	brtc	.-74     	; 0x2b2a <__ultoa_invert+0xe>
    2b74:	cf 01       	movw	r24, r30
    2b76:	08 95       	ret
    2b78:	46 2f       	mov	r20, r22
    2b7a:	47 70       	andi	r20, 0x07	; 7
    2b7c:	40 5d       	subi	r20, 0xD0	; 208
    2b7e:	41 93       	st	Z+, r20
    2b80:	b3 e0       	ldi	r27, 0x03	; 3
    2b82:	0f d0       	rcall	.+30     	; 0x2ba2 <__ultoa_invert+0x86>
    2b84:	c9 f7       	brne	.-14     	; 0x2b78 <__ultoa_invert+0x5c>
    2b86:	f6 cf       	rjmp	.-20     	; 0x2b74 <__ultoa_invert+0x58>
    2b88:	46 2f       	mov	r20, r22
    2b8a:	4f 70       	andi	r20, 0x0F	; 15
    2b8c:	40 5d       	subi	r20, 0xD0	; 208
    2b8e:	4a 33       	cpi	r20, 0x3A	; 58
    2b90:	18 f0       	brcs	.+6      	; 0x2b98 <__ultoa_invert+0x7c>
    2b92:	49 5d       	subi	r20, 0xD9	; 217
    2b94:	31 fd       	sbrc	r19, 1
    2b96:	40 52       	subi	r20, 0x20	; 32
    2b98:	41 93       	st	Z+, r20
    2b9a:	02 d0       	rcall	.+4      	; 0x2ba0 <__ultoa_invert+0x84>
    2b9c:	a9 f7       	brne	.-22     	; 0x2b88 <__ultoa_invert+0x6c>
    2b9e:	ea cf       	rjmp	.-44     	; 0x2b74 <__ultoa_invert+0x58>
    2ba0:	b4 e0       	ldi	r27, 0x04	; 4
    2ba2:	a6 95       	lsr	r26
    2ba4:	97 95       	ror	r25
    2ba6:	87 95       	ror	r24
    2ba8:	77 95       	ror	r23
    2baa:	67 95       	ror	r22
    2bac:	ba 95       	dec	r27
    2bae:	c9 f7       	brne	.-14     	; 0x2ba2 <__ultoa_invert+0x86>
    2bb0:	00 97       	sbiw	r24, 0x00	; 0
    2bb2:	61 05       	cpc	r22, r1
    2bb4:	71 05       	cpc	r23, r1
    2bb6:	08 95       	ret
    2bb8:	9b 01       	movw	r18, r22
    2bba:	ac 01       	movw	r20, r24
    2bbc:	0a 2e       	mov	r0, r26
    2bbe:	06 94       	lsr	r0
    2bc0:	57 95       	ror	r21
    2bc2:	47 95       	ror	r20
    2bc4:	37 95       	ror	r19
    2bc6:	27 95       	ror	r18
    2bc8:	ba 95       	dec	r27
    2bca:	c9 f7       	brne	.-14     	; 0x2bbe <__ultoa_invert+0xa2>
    2bcc:	62 0f       	add	r22, r18
    2bce:	73 1f       	adc	r23, r19
    2bd0:	84 1f       	adc	r24, r20
    2bd2:	95 1f       	adc	r25, r21
    2bd4:	a0 1d       	adc	r26, r0
    2bd6:	08 95       	ret

00002bd8 <ccp_write_io>:
    2bd8:	dc 01       	movw	r26, r24
    2bda:	28 ed       	ldi	r18, 0xD8	; 216
    2bdc:	20 93 34 00 	sts	0x0034, r18	; 0x800034 <__TEXT_REGION_LENGTH__+0x7f0034>
    2be0:	6c 93       	st	X, r22
    2be2:	08 95       	ret

00002be4 <__mulsi3>:
    2be4:	db 01       	movw	r26, r22
    2be6:	8f 93       	push	r24
    2be8:	9f 93       	push	r25
    2bea:	0e 94 02 16 	call	0x2c04	; 0x2c04 <__muluhisi3>
    2bee:	bf 91       	pop	r27
    2bf0:	af 91       	pop	r26
    2bf2:	a2 9f       	mul	r26, r18
    2bf4:	80 0d       	add	r24, r0
    2bf6:	91 1d       	adc	r25, r1
    2bf8:	a3 9f       	mul	r26, r19
    2bfa:	90 0d       	add	r25, r0
    2bfc:	b2 9f       	mul	r27, r18
    2bfe:	90 0d       	add	r25, r0
    2c00:	11 24       	eor	r1, r1
    2c02:	08 95       	ret

00002c04 <__muluhisi3>:
    2c04:	0e 94 65 11 	call	0x22ca	; 0x22ca <__umulhisi3>
    2c08:	a5 9f       	mul	r26, r21
    2c0a:	90 0d       	add	r25, r0
    2c0c:	b4 9f       	mul	r27, r20
    2c0e:	90 0d       	add	r25, r0
    2c10:	a4 9f       	mul	r26, r20
    2c12:	80 0d       	add	r24, r0
    2c14:	91 1d       	adc	r25, r1
    2c16:	11 24       	eor	r1, r1
    2c18:	08 95       	ret

00002c1a <__prologue_saves__>:
    2c1a:	2f 92       	push	r2
    2c1c:	3f 92       	push	r3
    2c1e:	4f 92       	push	r4
    2c20:	5f 92       	push	r5
    2c22:	6f 92       	push	r6
    2c24:	7f 92       	push	r7
    2c26:	8f 92       	push	r8
    2c28:	9f 92       	push	r9
    2c2a:	af 92       	push	r10
    2c2c:	bf 92       	push	r11
    2c2e:	cf 92       	push	r12
    2c30:	df 92       	push	r13
    2c32:	ef 92       	push	r14
    2c34:	ff 92       	push	r15
    2c36:	0f 93       	push	r16
    2c38:	1f 93       	push	r17
    2c3a:	cf 93       	push	r28
    2c3c:	df 93       	push	r29
    2c3e:	cd b7       	in	r28, 0x3d	; 61
    2c40:	de b7       	in	r29, 0x3e	; 62
    2c42:	ca 1b       	sub	r28, r26
    2c44:	db 0b       	sbc	r29, r27
    2c46:	cd bf       	out	0x3d, r28	; 61
    2c48:	de bf       	out	0x3e, r29	; 62
    2c4a:	09 94       	ijmp

00002c4c <__epilogue_restores__>:
    2c4c:	2a 88       	ldd	r2, Y+18	; 0x12
    2c4e:	39 88       	ldd	r3, Y+17	; 0x11
    2c50:	48 88       	ldd	r4, Y+16	; 0x10
    2c52:	5f 84       	ldd	r5, Y+15	; 0x0f
    2c54:	6e 84       	ldd	r6, Y+14	; 0x0e
    2c56:	7d 84       	ldd	r7, Y+13	; 0x0d
    2c58:	8c 84       	ldd	r8, Y+12	; 0x0c
    2c5a:	9b 84       	ldd	r9, Y+11	; 0x0b
    2c5c:	aa 84       	ldd	r10, Y+10	; 0x0a
    2c5e:	b9 84       	ldd	r11, Y+9	; 0x09
    2c60:	c8 84       	ldd	r12, Y+8	; 0x08
    2c62:	df 80       	ldd	r13, Y+7	; 0x07
    2c64:	ee 80       	ldd	r14, Y+6	; 0x06
    2c66:	fd 80       	ldd	r15, Y+5	; 0x05
    2c68:	0c 81       	ldd	r16, Y+4	; 0x04
    2c6a:	1b 81       	ldd	r17, Y+3	; 0x03
    2c6c:	aa 81       	ldd	r26, Y+2	; 0x02
    2c6e:	b9 81       	ldd	r27, Y+1	; 0x01
    2c70:	ce 0f       	add	r28, r30
    2c72:	d1 1d       	adc	r29, r1
    2c74:	cd bf       	out	0x3d, r28	; 61
    2c76:	de bf       	out	0x3e, r29	; 62
    2c78:	ed 01       	movw	r28, r26
    2c7a:	08 95       	ret

00002c7c <_exit>:
    2c7c:	f8 94       	cli

00002c7e <__stop_program>:
    2c7e:	ff cf       	rjmp	.-2      	; 0x2c7e <__stop_program>
